	.file	"quicksort.cpp"
	.text
	.section	.text$_ZnwjPv,"x"
	.linkonce discard
	.globl	__ZnwjPv
	.def	__ZnwjPv;	.scl	2;	.type	32;	.endef
__ZnwjPv:
LFB42:
	.cfi_startproc
	pushl	%ebp
	.cfi_def_cfa_offset 8
	.cfi_offset 5, -8
	movl	%esp, %ebp
	.cfi_def_cfa_register 5
	movl	12(%ebp), %eax
	popl	%ebp
	.cfi_restore 5
	.cfi_def_cfa 4, 4
	ret
	.cfi_endproc
LFE42:
	.section .rdata,"dr"
__ZStL19piecewise_construct:
	.space 1
.lcomm __ZStL8__ioinit,1,1
	.text
	.globl	__Z9PartitionRSt6vectorIiSaIiEEii
	.def	__Z9PartitionRSt6vectorIiSaIiEEii;	.scl	2;	.type	32;	.endef
__Z9PartitionRSt6vectorIiSaIiEEii:
LFB1869:
	.cfi_startproc
	pushl	%ebp
	.cfi_def_cfa_offset 8
	.cfi_offset 5, -8
	movl	%esp, %ebp
	.cfi_def_cfa_register 5
	pushl	%ebx
	subl	$36, %esp
	.cfi_offset 3, -12
	movl	16(%ebp), %eax
	movl	%eax, -20(%ebp)
	movl	12(%ebp), %eax
	movl	%eax, -12(%ebp)
	movl	12(%ebp), %eax
	movl	%eax, -16(%ebp)
L6:
	movl	-16(%ebp), %eax
	cmpl	16(%ebp), %eax
	jge	L4
	movl	-16(%ebp), %eax
	movl	%eax, (%esp)
	movl	8(%ebp), %ecx
	call	__ZNSt6vectorIiSaIiEEixEj
	subl	$4, %esp
	movl	(%eax), %ebx
	movl	-20(%ebp), %eax
	movl	%eax, (%esp)
	movl	8(%ebp), %ecx
	call	__ZNSt6vectorIiSaIiEEixEj
	subl	$4, %esp
	movl	(%eax), %eax
	cmpl	%eax, %ebx
	setl	%al
	testb	%al, %al
	je	L5
	movl	-12(%ebp), %eax
	movl	%eax, (%esp)
	movl	8(%ebp), %ecx
	call	__ZNSt6vectorIiSaIiEEixEj
	subl	$4, %esp
	movl	%eax, %ebx
	movl	-16(%ebp), %eax
	movl	%eax, (%esp)
	movl	8(%ebp), %ecx
	call	__ZNSt6vectorIiSaIiEEixEj
	subl	$4, %esp
	movl	%ebx, 4(%esp)
	movl	%eax, (%esp)
	call	__ZSt4swapIiENSt9enable_ifIXsrSt6__and_IJSt6__not_ISt15__is_tuple_likeIT_EESt21is_move_constructibleIS4_ESt18is_move_assignableIS4_EEE5valueEvE4typeERS4_SE_
	addl	$1, -12(%ebp)
L5:
	addl	$1, -16(%ebp)
	jmp	L6
L4:
	movl	-20(%ebp), %eax
	movl	%eax, (%esp)
	movl	8(%ebp), %ecx
	call	__ZNSt6vectorIiSaIiEEixEj
	subl	$4, %esp
	movl	%eax, %ebx
	movl	-12(%ebp), %eax
	movl	%eax, (%esp)
	movl	8(%ebp), %ecx
	call	__ZNSt6vectorIiSaIiEEixEj
	subl	$4, %esp
	movl	%ebx, 4(%esp)
	movl	%eax, (%esp)
	call	__ZSt4swapIiENSt9enable_ifIXsrSt6__and_IJSt6__not_ISt15__is_tuple_likeIT_EESt21is_move_constructibleIS4_ESt18is_move_assignableIS4_EEE5valueEvE4typeERS4_SE_
	movl	-12(%ebp), %eax
	movl	-4(%ebp), %ebx
	leave
	.cfi_restore 5
	.cfi_restore 3
	.cfi_def_cfa 4, 4
	ret
	.cfi_endproc
LFE1869:
	.globl	__Z9QuicksortRSt6vectorIiSaIiEEii
	.def	__Z9QuicksortRSt6vectorIiSaIiEEii;	.scl	2;	.type	32;	.endef
__Z9QuicksortRSt6vectorIiSaIiEEii:
LFB1870:
	.cfi_startproc
	pushl	%ebp
	.cfi_def_cfa_offset 8
	.cfi_offset 5, -8
	movl	%esp, %ebp
	.cfi_def_cfa_register 5
	subl	$40, %esp
	movl	12(%ebp), %eax
	cmpl	16(%ebp), %eax
	jge	L10
	movl	16(%ebp), %eax
	movl	%eax, 8(%esp)
	movl	12(%ebp), %eax
	movl	%eax, 4(%esp)
	movl	8(%ebp), %eax
	movl	%eax, (%esp)
	call	__Z9PartitionRSt6vectorIiSaIiEEii
	movl	%eax, -12(%ebp)
	movl	-12(%ebp), %eax
	subl	$1, %eax
	movl	%eax, 8(%esp)
	movl	12(%ebp), %eax
	movl	%eax, 4(%esp)
	movl	8(%ebp), %eax
	movl	%eax, (%esp)
	call	__Z9QuicksortRSt6vectorIiSaIiEEii
	movl	-12(%ebp), %eax
	leal	1(%eax), %edx
	movl	16(%ebp), %eax
	movl	%eax, 8(%esp)
	movl	%edx, 4(%esp)
	movl	8(%ebp), %eax
	movl	%eax, (%esp)
	call	__Z9QuicksortRSt6vectorIiSaIiEEii
L10:
	nop
	leave
	.cfi_restore 5
	.cfi_def_cfa 4, 4
	ret
	.cfi_endproc
LFE1870:
	.section .rdata,"dr"
LC0:
	.ascii " \0"
LC1:
	.ascii "\12\12\0"
	.text
	.globl	__Z11PrintVectorSt6vectorIiSaIiEE
	.def	__Z11PrintVectorSt6vectorIiSaIiEE;	.scl	2;	.type	32;	.endef
__Z11PrintVectorSt6vectorIiSaIiEE:
LFB1871:
	.cfi_startproc
	pushl	%ebp
	.cfi_def_cfa_offset 8
	.cfi_offset 5, -8
	movl	%esp, %ebp
	.cfi_def_cfa_register 5
	subl	$40, %esp
	movl	$0, -12(%ebp)
L13:
	movl	8(%ebp), %ecx
	call	__ZNKSt6vectorIiSaIiEE4sizeEv
	movl	-12(%ebp), %edx
	cmpl	%edx, %eax
	seta	%al
	testb	%al, %al
	je	L12
	movl	-12(%ebp), %eax
	movl	%eax, (%esp)
	movl	8(%ebp), %ecx
	call	__ZNSt6vectorIiSaIiEEixEj
	subl	$4, %esp
	movl	(%eax), %eax
	movl	%eax, (%esp)
	movl	$__ZSt4cout, %ecx
	call	__ZNSolsEi
	subl	$4, %esp
	movl	$LC0, 4(%esp)
	movl	%eax, (%esp)
	call	__ZStlsISt11char_traitsIcEERSt13basic_ostreamIcT_ES5_PKc
	addl	$1, -12(%ebp)
	jmp	L13
L12:
	movl	$LC1, 4(%esp)
	movl	$__ZSt4cout, (%esp)
	call	__ZStlsISt11char_traitsIcEERSt13basic_ostreamIcT_ES5_PKc
	nop
	leave
	.cfi_restore 5
	.cfi_def_cfa 4, 4
	ret
	.cfi_endproc
LFE1871:
	.section	.text$_ZNSt12_Vector_baseIiSaIiEE12_Vector_implD1Ev,"x"
	.linkonce discard
	.align 2
	.globl	__ZNSt12_Vector_baseIiSaIiEE12_Vector_implD1Ev
	.def	__ZNSt12_Vector_baseIiSaIiEE12_Vector_implD1Ev;	.scl	2;	.type	32;	.endef
__ZNSt12_Vector_baseIiSaIiEE12_Vector_implD1Ev:
LFB1877:
	.cfi_startproc
	pushl	%ebp
	.cfi_def_cfa_offset 8
	.cfi_offset 5, -8
	movl	%esp, %ebp
	.cfi_def_cfa_register 5
	subl	$24, %esp
	movl	%ecx, -12(%ebp)
	movl	-12(%ebp), %eax
	movl	%eax, %ecx
	call	__ZNSaIiED2Ev
	nop
	leave
	.cfi_restore 5
	.cfi_def_cfa 4, 4
	ret
	.cfi_endproc
LFE1877:
	.section	.text$_ZNSt12_Vector_baseIiSaIiEEC2Ev,"x"
	.linkonce discard
	.align 2
	.globl	__ZNSt12_Vector_baseIiSaIiEEC2Ev
	.def	__ZNSt12_Vector_baseIiSaIiEEC2Ev;	.scl	2;	.type	32;	.endef
__ZNSt12_Vector_baseIiSaIiEEC2Ev:
LFB1878:
	.cfi_startproc
	pushl	%ebp
	.cfi_def_cfa_offset 8
	.cfi_offset 5, -8
	movl	%esp, %ebp
	.cfi_def_cfa_register 5
	subl	$24, %esp
	movl	%ecx, -12(%ebp)
	movl	-12(%ebp), %eax
	movl	%eax, %ecx
	call	__ZNSt12_Vector_baseIiSaIiEE12_Vector_implC1Ev
	nop
	leave
	.cfi_restore 5
	.cfi_def_cfa 4, 4
	ret
	.cfi_endproc
LFE1878:
	.section	.text$_ZNSt6vectorIiSaIiEEC1Ev,"x"
	.linkonce discard
	.align 2
	.globl	__ZNSt6vectorIiSaIiEEC1Ev
	.def	__ZNSt6vectorIiSaIiEEC1Ev;	.scl	2;	.type	32;	.endef
__ZNSt6vectorIiSaIiEEC1Ev:
LFB1881:
	.cfi_startproc
	pushl	%ebp
	.cfi_def_cfa_offset 8
	.cfi_offset 5, -8
	movl	%esp, %ebp
	.cfi_def_cfa_register 5
	subl	$24, %esp
	movl	%ecx, -12(%ebp)
	movl	-12(%ebp), %eax
	movl	%eax, %ecx
	call	__ZNSt12_Vector_baseIiSaIiEEC2Ev
	nop
	leave
	.cfi_restore 5
	.cfi_def_cfa 4, 4
	ret
	.cfi_endproc
LFE1881:
	.def	___main;	.scl	2;	.type	32;	.endef
	.section .rdata,"dr"
LC2:
	.ascii "Vector Before Sorting: \0"
LC3:
	.ascii "Vector After Sorting: \0"
	.text
	.globl	_main
	.def	_main;	.scl	2;	.type	32;	.endef
_main:
LFB1872:
	.cfi_startproc
	.cfi_personality 0,___gxx_personality_v0
	.cfi_lsda 0,LLSDA1872
	leal	4(%esp), %ecx
	.cfi_def_cfa 1, 0
	andl	$-16, %esp
	pushl	-4(%ecx)
	pushl	%ebp
	.cfi_escape 0x10,0x5,0x2,0x75,0
	movl	%esp, %ebp
	pushl	%ebx
	pushl	%ecx
	.cfi_escape 0xf,0x3,0x75,0x78,0x6
	.cfi_escape 0x10,0x3,0x2,0x75,0x7c
	subl	$64, %esp
	call	___main
	leal	-48(%ebp), %eax
	movl	%eax, %ecx
	call	__ZNSt6vectorIiSaIiEEC1Ev
	leal	-52(%ebp), %eax
	movl	%eax, (%esp)
	movl	$__ZSt3cin, %ecx
LEHB0:
	call	__ZNSirsERi
	subl	$4, %esp
	movl	$0, -12(%ebp)
L19:
	movl	-52(%ebp), %eax
	cmpl	%eax, -12(%ebp)
	jge	L18
	leal	-56(%ebp), %eax
	movl	%eax, (%esp)
	movl	$__ZSt3cin, %ecx
	call	__ZNSirsERi
	subl	$4, %esp
	leal	-48(%ebp), %eax
	leal	-56(%ebp), %edx
	movl	%edx, (%esp)
	movl	%eax, %ecx
	call	__ZNSt6vectorIiSaIiEE9push_backERKi
	subl	$4, %esp
	addl	$1, -12(%ebp)
	jmp	L19
L18:
	movl	$LC2, 4(%esp)
	movl	$__ZSt4cout, (%esp)
	call	__ZStlsISt11char_traitsIcEERSt13basic_ostreamIcT_ES5_PKc
	movl	$__ZSt4endlIcSt11char_traitsIcEERSt13basic_ostreamIT_T0_ES6_, (%esp)
	movl	%eax, %ecx
	call	__ZNSolsEPFRSoS_E
	subl	$4, %esp
	leal	-36(%ebp), %eax
	leal	-48(%ebp), %edx
	movl	%edx, (%esp)
	movl	%eax, %ecx
	call	__ZNSt6vectorIiSaIiEEC1ERKS1_
LEHE0:
	subl	$4, %esp
	leal	-36(%ebp), %eax
	movl	%eax, (%esp)
LEHB1:
	call	__Z11PrintVectorSt6vectorIiSaIiEE
LEHE1:
	leal	-36(%ebp), %eax
	movl	%eax, %ecx
	call	__ZNSt6vectorIiSaIiEED1Ev
	leal	-48(%ebp), %eax
	movl	%eax, %ecx
	call	__ZNKSt6vectorIiSaIiEE4sizeEv
	subl	$1, %eax
	movl	%eax, 8(%esp)
	movl	$0, 4(%esp)
	leal	-48(%ebp), %eax
	movl	%eax, (%esp)
LEHB2:
	call	__Z9QuicksortRSt6vectorIiSaIiEEii
	movl	$LC3, 4(%esp)
	movl	$__ZSt4cout, (%esp)
	call	__ZStlsISt11char_traitsIcEERSt13basic_ostreamIcT_ES5_PKc
	movl	$__ZSt4endlIcSt11char_traitsIcEERSt13basic_ostreamIT_T0_ES6_, (%esp)
	movl	%eax, %ecx
	call	__ZNSolsEPFRSoS_E
	subl	$4, %esp
	leal	-24(%ebp), %eax
	leal	-48(%ebp), %edx
	movl	%edx, (%esp)
	movl	%eax, %ecx
	call	__ZNSt6vectorIiSaIiEEC1ERKS1_
LEHE2:
	subl	$4, %esp
	leal	-24(%ebp), %eax
	movl	%eax, (%esp)
LEHB3:
	call	__Z11PrintVectorSt6vectorIiSaIiEE
LEHE3:
	leal	-24(%ebp), %eax
	movl	%eax, %ecx
	call	__ZNSt6vectorIiSaIiEED1Ev
	movl	$0, %ebx
	leal	-48(%ebp), %eax
	movl	%eax, %ecx
	call	__ZNSt6vectorIiSaIiEED1Ev
	movl	%ebx, %eax
	jmp	L27
L25:
	movl	%eax, %ebx
	leal	-36(%ebp), %eax
	movl	%eax, %ecx
	call	__ZNSt6vectorIiSaIiEED1Ev
	jmp	L22
L26:
	movl	%eax, %ebx
	leal	-24(%ebp), %eax
	movl	%eax, %ecx
	call	__ZNSt6vectorIiSaIiEED1Ev
	jmp	L22
L24:
	movl	%eax, %ebx
L22:
	leal	-48(%ebp), %eax
	movl	%eax, %ecx
	call	__ZNSt6vectorIiSaIiEED1Ev
	movl	%ebx, %eax
	movl	%eax, (%esp)
LEHB4:
	call	__Unwind_Resume
LEHE4:
L27:
	leal	-8(%ebp), %esp
	popl	%ecx
	.cfi_restore 1
	.cfi_def_cfa 1, 0
	popl	%ebx
	.cfi_restore 3
	popl	%ebp
	.cfi_restore 5
	leal	-4(%ecx), %esp
	.cfi_def_cfa 4, 4
	ret
	.cfi_endproc
LFE1872:
	.def	___gxx_personality_v0;	.scl	2;	.type	32;	.endef
	.section	.gcc_except_table,"w"
LLSDA1872:
	.byte	0xff
	.byte	0xff
	.byte	0x1
	.uleb128 LLSDACSE1872-LLSDACSB1872
LLSDACSB1872:
	.uleb128 LEHB0-LFB1872
	.uleb128 LEHE0-LEHB0
	.uleb128 L24-LFB1872
	.uleb128 0
	.uleb128 LEHB1-LFB1872
	.uleb128 LEHE1-LEHB1
	.uleb128 L25-LFB1872
	.uleb128 0
	.uleb128 LEHB2-LFB1872
	.uleb128 LEHE2-LEHB2
	.uleb128 L24-LFB1872
	.uleb128 0
	.uleb128 LEHB3-LFB1872
	.uleb128 LEHE3-LEHB3
	.uleb128 L26-LFB1872
	.uleb128 0
	.uleb128 LEHB4-LFB1872
	.uleb128 LEHE4-LEHB4
	.uleb128 0
	.uleb128 0
LLSDACSE1872:
	.text
	.section	.text$_ZNSt6vectorIiSaIiEEixEj,"x"
	.linkonce discard
	.align 2
	.globl	__ZNSt6vectorIiSaIiEEixEj
	.def	__ZNSt6vectorIiSaIiEEixEj;	.scl	2;	.type	32;	.endef
__ZNSt6vectorIiSaIiEEixEj:
LFB2117:
	.cfi_startproc
	pushl	%ebp
	.cfi_def_cfa_offset 8
	.cfi_offset 5, -8
	movl	%esp, %ebp
	.cfi_def_cfa_register 5
	subl	$4, %esp
	movl	%ecx, -4(%ebp)
	movl	-4(%ebp), %eax
	movl	(%eax), %eax
	movl	8(%ebp), %edx
	sall	$2, %edx
	addl	%edx, %eax
	leave
	.cfi_restore 5
	.cfi_def_cfa 4, 4
	ret	$4
	.cfi_endproc
LFE2117:
	.section	.text$_ZSt4moveIRiEONSt16remove_referenceIT_E4typeEOS2_,"x"
	.linkonce discard
	.globl	__ZSt4moveIRiEONSt16remove_referenceIT_E4typeEOS2_
	.def	__ZSt4moveIRiEONSt16remove_referenceIT_E4typeEOS2_;	.scl	2;	.type	32;	.endef
__ZSt4moveIRiEONSt16remove_referenceIT_E4typeEOS2_:
LFB2119:
	.cfi_startproc
	pushl	%ebp
	.cfi_def_cfa_offset 8
	.cfi_offset 5, -8
	movl	%esp, %ebp
	.cfi_def_cfa_register 5
	movl	8(%ebp), %eax
	popl	%ebp
	.cfi_restore 5
	.cfi_def_cfa 4, 4
	ret
	.cfi_endproc
LFE2119:
	.section	.text$_ZSt4swapIiENSt9enable_ifIXsrSt6__and_IJSt6__not_ISt15__is_tuple_likeIT_EESt21is_move_constructibleIS4_ESt18is_move_assignableIS4_EEE5valueEvE4typeERS4_SE_,"x"
	.linkonce discard
	.globl	__ZSt4swapIiENSt9enable_ifIXsrSt6__and_IJSt6__not_ISt15__is_tuple_likeIT_EESt21is_move_constructibleIS4_ESt18is_move_assignableIS4_EEE5valueEvE4typeERS4_SE_
	.def	__ZSt4swapIiENSt9enable_ifIXsrSt6__and_IJSt6__not_ISt15__is_tuple_likeIT_EESt21is_move_constructibleIS4_ESt18is_move_assignableIS4_EEE5valueEvE4typeERS4_SE_;	.scl	2;	.type	32;	.endef
__ZSt4swapIiENSt9enable_ifIXsrSt6__and_IJSt6__not_ISt15__is_tuple_likeIT_EESt21is_move_constructibleIS4_ESt18is_move_assignableIS4_EEE5valueEvE4typeERS4_SE_:
LFB2118:
	.cfi_startproc
	pushl	%ebp
	.cfi_def_cfa_offset 8
	.cfi_offset 5, -8
	movl	%esp, %ebp
	.cfi_def_cfa_register 5
	subl	$40, %esp
	movl	8(%ebp), %eax
	movl	%eax, (%esp)
	call	__ZSt4moveIRiEONSt16remove_referenceIT_E4typeEOS2_
	movl	(%eax), %eax
	movl	%eax, -12(%ebp)
	movl	12(%ebp), %eax
	movl	%eax, (%esp)
	call	__ZSt4moveIRiEONSt16remove_referenceIT_E4typeEOS2_
	movl	(%eax), %edx
	movl	8(%ebp), %eax
	movl	%edx, (%eax)
	leal	-12(%ebp), %eax
	movl	%eax, (%esp)
	call	__ZSt4moveIRiEONSt16remove_referenceIT_E4typeEOS2_
	movl	(%eax), %edx
	movl	12(%ebp), %eax
	movl	%edx, (%eax)
	nop
	leave
	.cfi_restore 5
	.cfi_def_cfa 4, 4
	ret
	.cfi_endproc
LFE2118:
	.section	.text$_ZNKSt6vectorIiSaIiEE4sizeEv,"x"
	.linkonce discard
	.align 2
	.globl	__ZNKSt6vectorIiSaIiEE4sizeEv
	.def	__ZNKSt6vectorIiSaIiEE4sizeEv;	.scl	2;	.type	32;	.endef
__ZNKSt6vectorIiSaIiEE4sizeEv:
LFB2120:
	.cfi_startproc
	pushl	%ebp
	.cfi_def_cfa_offset 8
	.cfi_offset 5, -8
	movl	%esp, %ebp
	.cfi_def_cfa_register 5
	subl	$4, %esp
	movl	%ecx, -4(%ebp)
	movl	-4(%ebp), %eax
	movl	4(%eax), %edx
	movl	-4(%ebp), %eax
	movl	(%eax), %eax
	subl	%eax, %edx
	movl	%edx, %eax
	sarl	$2, %eax
	leave
	.cfi_restore 5
	.cfi_def_cfa 4, 4
	ret
	.cfi_endproc
LFE2120:
	.section	.text$_ZNSt12_Vector_baseIiSaIiEE12_Vector_implC1Ev,"x"
	.linkonce discard
	.align 2
	.globl	__ZNSt12_Vector_baseIiSaIiEE12_Vector_implC1Ev
	.def	__ZNSt12_Vector_baseIiSaIiEE12_Vector_implC1Ev;	.scl	2;	.type	32;	.endef
__ZNSt12_Vector_baseIiSaIiEE12_Vector_implC1Ev:
LFB2124:
	.cfi_startproc
	pushl	%ebp
	.cfi_def_cfa_offset 8
	.cfi_offset 5, -8
	movl	%esp, %ebp
	.cfi_def_cfa_register 5
	subl	$24, %esp
	movl	%ecx, -12(%ebp)
	movl	-12(%ebp), %eax
	movl	%eax, %ecx
	call	__ZNSaIiEC2Ev
	movl	-12(%ebp), %eax
	movl	%eax, %ecx
	call	__ZNSt12_Vector_baseIiSaIiEE17_Vector_impl_dataC2Ev
	nop
	leave
	.cfi_restore 5
	.cfi_def_cfa 4, 4
	ret
	.cfi_endproc
LFE2124:
	.section	.text$_ZNSaIiED2Ev,"x"
	.linkonce discard
	.align 2
	.globl	__ZNSaIiED2Ev
	.def	__ZNSaIiED2Ev;	.scl	2;	.type	32;	.endef
__ZNSaIiED2Ev:
LFB2126:
	.cfi_startproc
	pushl	%ebp
	.cfi_def_cfa_offset 8
	.cfi_offset 5, -8
	movl	%esp, %ebp
	.cfi_def_cfa_register 5
	subl	$24, %esp
	movl	%ecx, -12(%ebp)
	movl	-12(%ebp), %eax
	movl	%eax, %ecx
	call	__ZN9__gnu_cxx13new_allocatorIiED2Ev
	nop
	leave
	.cfi_restore 5
	.cfi_def_cfa 4, 4
	ret
	.cfi_endproc
LFE2126:
	.section	.text$_ZNSaIiED1Ev,"x"
	.linkonce discard
	.align 2
	.globl	__ZNSaIiED1Ev
	.def	__ZNSaIiED1Ev;	.scl	2;	.type	32;	.endef
__ZNSaIiED1Ev:
LFB2127:
	.cfi_startproc
	pushl	%ebp
	.cfi_def_cfa_offset 8
	.cfi_offset 5, -8
	movl	%esp, %ebp
	.cfi_def_cfa_register 5
	subl	$24, %esp
	movl	%ecx, -12(%ebp)
	movl	-12(%ebp), %eax
	movl	%eax, %ecx
	call	__ZN9__gnu_cxx13new_allocatorIiED2Ev
	nop
	leave
	.cfi_restore 5
	.cfi_def_cfa 4, 4
	ret
	.cfi_endproc
LFE2127:
	.section	.text$_ZNSt12_Vector_baseIiSaIiEED2Ev,"x"
	.linkonce discard
	.align 2
	.globl	__ZNSt12_Vector_baseIiSaIiEED2Ev
	.def	__ZNSt12_Vector_baseIiSaIiEED2Ev;	.scl	2;	.type	32;	.endef
__ZNSt12_Vector_baseIiSaIiEED2Ev:
LFB2129:
	.cfi_startproc
	.cfi_personality 0,___gxx_personality_v0
	.cfi_lsda 0,LLSDA2129
	pushl	%ebp
	.cfi_def_cfa_offset 8
	.cfi_offset 5, -8
	movl	%esp, %ebp
	.cfi_def_cfa_register 5
	subl	$40, %esp
	movl	%ecx, -12(%ebp)
	movl	-12(%ebp), %eax
	movl	8(%eax), %edx
	movl	-12(%ebp), %eax
	movl	(%eax), %eax
	subl	%eax, %edx
	movl	%edx, %eax
	sarl	$2, %eax
	movl	%eax, %ecx
	movl	-12(%ebp), %eax
	movl	(%eax), %edx
	movl	-12(%ebp), %eax
	movl	%ecx, 4(%esp)
	movl	%edx, (%esp)
	movl	%eax, %ecx
	call	__ZNSt12_Vector_baseIiSaIiEE13_M_deallocateEPij
	subl	$8, %esp
	movl	-12(%ebp), %eax
	movl	%eax, %ecx
	call	__ZNSt12_Vector_baseIiSaIiEE12_Vector_implD1Ev
	nop
	leave
	.cfi_restore 5
	.cfi_def_cfa 4, 4
	ret
	.cfi_endproc
LFE2129:
	.section	.gcc_except_table,"w"
LLSDA2129:
	.byte	0xff
	.byte	0xff
	.byte	0x1
	.uleb128 LLSDACSE2129-LLSDACSB2129
LLSDACSB2129:
LLSDACSE2129:
	.section	.text$_ZNSt12_Vector_baseIiSaIiEED2Ev,"x"
	.linkonce discard
	.section	.text$_ZNSt6vectorIiSaIiEED1Ev,"x"
	.linkonce discard
	.align 2
	.globl	__ZNSt6vectorIiSaIiEED1Ev
	.def	__ZNSt6vectorIiSaIiEED1Ev;	.scl	2;	.type	32;	.endef
__ZNSt6vectorIiSaIiEED1Ev:
LFB2133:
	.cfi_startproc
	.cfi_personality 0,___gxx_personality_v0
	.cfi_lsda 0,LLSDA2133
	pushl	%ebp
	.cfi_def_cfa_offset 8
	.cfi_offset 5, -8
	movl	%esp, %ebp
	.cfi_def_cfa_register 5
	subl	$40, %esp
	movl	%ecx, -12(%ebp)
	movl	-12(%ebp), %eax
	movl	%eax, %ecx
	call	__ZNSt12_Vector_baseIiSaIiEE19_M_get_Tp_allocatorEv
	movl	-12(%ebp), %edx
	movl	4(%edx), %ecx
	movl	-12(%ebp), %edx
	movl	(%edx), %edx
	movl	%eax, 8(%esp)
	movl	%ecx, 4(%esp)
	movl	%edx, (%esp)
	call	__ZSt8_DestroyIPiiEvT_S1_RSaIT0_E
	movl	-12(%ebp), %eax
	movl	%eax, %ecx
	call	__ZNSt12_Vector_baseIiSaIiEED2Ev
	nop
	leave
	.cfi_restore 5
	.cfi_def_cfa 4, 4
	ret
	.cfi_endproc
LFE2133:
	.section	.gcc_except_table,"w"
LLSDA2133:
	.byte	0xff
	.byte	0xff
	.byte	0x1
	.uleb128 LLSDACSE2133-LLSDACSB2133
LLSDACSB2133:
LLSDACSE2133:
	.section	.text$_ZNSt6vectorIiSaIiEED1Ev,"x"
	.linkonce discard
	.section	.text$_ZNSt6vectorIiSaIiEE9push_backERKi,"x"
	.linkonce discard
	.align 2
	.globl	__ZNSt6vectorIiSaIiEE9push_backERKi
	.def	__ZNSt6vectorIiSaIiEE9push_backERKi;	.scl	2;	.type	32;	.endef
__ZNSt6vectorIiSaIiEE9push_backERKi:
LFB2134:
	.cfi_startproc
	pushl	%ebp
	.cfi_def_cfa_offset 8
	.cfi_offset 5, -8
	movl	%esp, %ebp
	.cfi_def_cfa_register 5
	subl	$40, %esp
	movl	%ecx, -12(%ebp)
	movl	-12(%ebp), %eax
	movl	4(%eax), %edx
	movl	-12(%ebp), %eax
	movl	8(%eax), %eax
	cmpl	%eax, %edx
	je	L41
	movl	-12(%ebp), %eax
	movl	4(%eax), %edx
	movl	-12(%ebp), %eax
	movl	8(%ebp), %ecx
	movl	%ecx, 8(%esp)
	movl	%edx, 4(%esp)
	movl	%eax, (%esp)
	call	__ZNSt16allocator_traitsISaIiEE9constructIiJRKiEEEvRS0_PT_DpOT0_
	movl	-12(%ebp), %eax
	movl	4(%eax), %eax
	leal	4(%eax), %edx
	movl	-12(%ebp), %eax
	movl	%edx, 4(%eax)
	jmp	L43
L41:
	movl	-12(%ebp), %eax
	movl	%eax, %ecx
	call	__ZNSt6vectorIiSaIiEE3endEv
	movl	%eax, %edx
	movl	-12(%ebp), %eax
	movl	8(%ebp), %ecx
	movl	%ecx, 4(%esp)
	movl	%edx, (%esp)
	movl	%eax, %ecx
	call	__ZNSt6vectorIiSaIiEE17_M_realloc_insertIJRKiEEEvN9__gnu_cxx17__normal_iteratorIPiS1_EEDpOT_
	subl	$8, %esp
L43:
	nop
	leave
	.cfi_restore 5
	.cfi_def_cfa 4, 4
	ret	$4
	.cfi_endproc
LFE2134:
	.section	.text$_ZNSt6vectorIiSaIiEEC1ERKS1_,"x"
	.linkonce discard
	.align 2
	.globl	__ZNSt6vectorIiSaIiEEC1ERKS1_
	.def	__ZNSt6vectorIiSaIiEEC1ERKS1_;	.scl	2;	.type	32;	.endef
__ZNSt6vectorIiSaIiEEC1ERKS1_:
LFB2139:
	.cfi_startproc
	.cfi_personality 0,___gxx_personality_v0
	.cfi_lsda 0,LLSDA2139
	pushl	%ebp
	.cfi_def_cfa_offset 8
	.cfi_offset 5, -8
	movl	%esp, %ebp
	.cfi_def_cfa_register 5
	pushl	%edi
	pushl	%esi
	pushl	%ebx
	subl	$60, %esp
	.cfi_offset 7, -12
	.cfi_offset 6, -16
	.cfi_offset 3, -20
	movl	%ecx, -44(%ebp)
	movl	-44(%ebp), %ebx
	movl	8(%ebp), %eax
	movl	%eax, %ecx
	call	__ZNKSt12_Vector_baseIiSaIiEE19_M_get_Tp_allocatorEv
	leal	-25(%ebp), %edx
	movl	%eax, 4(%esp)
	movl	%edx, (%esp)
LEHB5:
	call	__ZN9__gnu_cxx14__alloc_traitsISaIiEiE17_S_select_on_copyERKS1_
LEHE5:
	movl	8(%ebp), %ecx
	call	__ZNKSt6vectorIiSaIiEE4sizeEv
	leal	-25(%ebp), %edx
	movl	%edx, 4(%esp)
	movl	%eax, (%esp)
	movl	%ebx, %ecx
LEHB6:
	call	__ZNSt12_Vector_baseIiSaIiEEC2EjRKS0_
LEHE6:
	subl	$8, %esp
	leal	-25(%ebp), %eax
	movl	%eax, %ecx
	call	__ZNSaIiED1Ev
	movl	-44(%ebp), %eax
	movl	%eax, %ecx
	call	__ZNSt12_Vector_baseIiSaIiEE19_M_get_Tp_allocatorEv
	movl	%eax, %esi
	movl	-44(%ebp), %eax
	movl	(%eax), %edi
	movl	8(%ebp), %ecx
	call	__ZNKSt6vectorIiSaIiEE3endEv
	movl	%eax, %ebx
	movl	8(%ebp), %ecx
	call	__ZNKSt6vectorIiSaIiEE5beginEv
	movl	%esi, 12(%esp)
	movl	%edi, 8(%esp)
	movl	%ebx, 4(%esp)
	movl	%eax, (%esp)
LEHB7:
	call	__ZSt22__uninitialized_copy_aIN9__gnu_cxx17__normal_iteratorIPKiSt6vectorIiSaIiEEEEPiiET0_T_SA_S9_RSaIT1_E
LEHE7:
	movl	-44(%ebp), %edx
	movl	%eax, 4(%edx)
	jmp	L49
L47:
	movl	%eax, %ebx
	leal	-25(%ebp), %eax
	movl	%eax, %ecx
	call	__ZNSaIiED1Ev
	movl	%ebx, %eax
	movl	%eax, (%esp)
LEHB8:
	call	__Unwind_Resume
L48:
	movl	%eax, %ebx
	movl	-44(%ebp), %eax
	movl	%eax, %ecx
	call	__ZNSt12_Vector_baseIiSaIiEED2Ev
	movl	%ebx, %eax
	movl	%eax, (%esp)
	call	__Unwind_Resume
LEHE8:
L49:
	leal	-12(%ebp), %esp
	popl	%ebx
	.cfi_restore 3
	popl	%esi
	.cfi_restore 6
	popl	%edi
	.cfi_restore 7
	popl	%ebp
	.cfi_restore 5
	.cfi_def_cfa 4, 4
	ret	$4
	.cfi_endproc
LFE2139:
	.section	.gcc_except_table,"w"
LLSDA2139:
	.byte	0xff
	.byte	0xff
	.byte	0x1
	.uleb128 LLSDACSE2139-LLSDACSB2139
LLSDACSB2139:
	.uleb128 LEHB5-LFB2139
	.uleb128 LEHE5-LEHB5
	.uleb128 0
	.uleb128 0
	.uleb128 LEHB6-LFB2139
	.uleb128 LEHE6-LEHB6
	.uleb128 L47-LFB2139
	.uleb128 0
	.uleb128 LEHB7-LFB2139
	.uleb128 LEHE7-LEHB7
	.uleb128 L48-LFB2139
	.uleb128 0
	.uleb128 LEHB8-LFB2139
	.uleb128 LEHE8-LEHB8
	.uleb128 0
	.uleb128 0
LLSDACSE2139:
	.section	.text$_ZNSt6vectorIiSaIiEEC1ERKS1_,"x"
	.linkonce discard
	.section	.text$_ZNSaIiEC2Ev,"x"
	.linkonce discard
	.align 2
	.globl	__ZNSaIiEC2Ev
	.def	__ZNSaIiEC2Ev;	.scl	2;	.type	32;	.endef
__ZNSaIiEC2Ev:
LFB2247:
	.cfi_startproc
	pushl	%ebp
	.cfi_def_cfa_offset 8
	.cfi_offset 5, -8
	movl	%esp, %ebp
	.cfi_def_cfa_register 5
	subl	$24, %esp
	movl	%ecx, -12(%ebp)
	movl	-12(%ebp), %eax
	movl	%eax, %ecx
	call	__ZN9__gnu_cxx13new_allocatorIiEC2Ev
	nop
	leave
	.cfi_restore 5
	.cfi_def_cfa 4, 4
	ret
	.cfi_endproc
LFE2247:
	.section	.text$_ZNSt12_Vector_baseIiSaIiEE17_Vector_impl_dataC2Ev,"x"
	.linkonce discard
	.align 2
	.globl	__ZNSt12_Vector_baseIiSaIiEE17_Vector_impl_dataC2Ev
	.def	__ZNSt12_Vector_baseIiSaIiEE17_Vector_impl_dataC2Ev;	.scl	2;	.type	32;	.endef
__ZNSt12_Vector_baseIiSaIiEE17_Vector_impl_dataC2Ev:
LFB2250:
	.cfi_startproc
	pushl	%ebp
	.cfi_def_cfa_offset 8
	.cfi_offset 5, -8
	movl	%esp, %ebp
	.cfi_def_cfa_register 5
	subl	$4, %esp
	movl	%ecx, -4(%ebp)
	movl	-4(%ebp), %eax
	movl	$0, (%eax)
	movl	-4(%ebp), %eax
	movl	$0, 4(%eax)
	movl	-4(%ebp), %eax
	movl	$0, 8(%eax)
	nop
	leave
	.cfi_restore 5
	.cfi_def_cfa 4, 4
	ret
	.cfi_endproc
LFE2250:
	.section	.text$_ZN9__gnu_cxx13new_allocatorIiED2Ev,"x"
	.linkonce discard
	.align 2
	.globl	__ZN9__gnu_cxx13new_allocatorIiED2Ev
	.def	__ZN9__gnu_cxx13new_allocatorIiED2Ev;	.scl	2;	.type	32;	.endef
__ZN9__gnu_cxx13new_allocatorIiED2Ev:
LFB2253:
	.cfi_startproc
	pushl	%ebp
	.cfi_def_cfa_offset 8
	.cfi_offset 5, -8
	movl	%esp, %ebp
	.cfi_def_cfa_register 5
	subl	$4, %esp
	movl	%ecx, -4(%ebp)
	nop
	leave
	.cfi_restore 5
	.cfi_def_cfa 4, 4
	ret
	.cfi_endproc
LFE2253:
	.section	.text$_ZNSt12_Vector_baseIiSaIiEE13_M_deallocateEPij,"x"
	.linkonce discard
	.align 2
	.globl	__ZNSt12_Vector_baseIiSaIiEE13_M_deallocateEPij
	.def	__ZNSt12_Vector_baseIiSaIiEE13_M_deallocateEPij;	.scl	2;	.type	32;	.endef
__ZNSt12_Vector_baseIiSaIiEE13_M_deallocateEPij:
LFB2255:
	.cfi_startproc
	pushl	%ebp
	.cfi_def_cfa_offset 8
	.cfi_offset 5, -8
	movl	%esp, %ebp
	.cfi_def_cfa_register 5
	subl	$40, %esp
	movl	%ecx, -12(%ebp)
	cmpl	$0, 8(%ebp)
	je	L55
	movl	-12(%ebp), %eax
	movl	12(%ebp), %edx
	movl	%edx, 8(%esp)
	movl	8(%ebp), %edx
	movl	%edx, 4(%esp)
	movl	%eax, (%esp)
	call	__ZNSt16allocator_traitsISaIiEE10deallocateERS0_Pij
L55:
	nop
	leave
	.cfi_restore 5
	.cfi_def_cfa 4, 4
	ret	$8
	.cfi_endproc
LFE2255:
	.section	.text$_ZNSt12_Vector_baseIiSaIiEE19_M_get_Tp_allocatorEv,"x"
	.linkonce discard
	.align 2
	.globl	__ZNSt12_Vector_baseIiSaIiEE19_M_get_Tp_allocatorEv
	.def	__ZNSt12_Vector_baseIiSaIiEE19_M_get_Tp_allocatorEv;	.scl	2;	.type	32;	.endef
__ZNSt12_Vector_baseIiSaIiEE19_M_get_Tp_allocatorEv:
LFB2256:
	.cfi_startproc
	pushl	%ebp
	.cfi_def_cfa_offset 8
	.cfi_offset 5, -8
	movl	%esp, %ebp
	.cfi_def_cfa_register 5
	subl	$4, %esp
	movl	%ecx, -4(%ebp)
	movl	-4(%ebp), %eax
	leave
	.cfi_restore 5
	.cfi_def_cfa 4, 4
	ret
	.cfi_endproc
LFE2256:
	.section	.text$_ZSt8_DestroyIPiiEvT_S1_RSaIT0_E,"x"
	.linkonce discard
	.globl	__ZSt8_DestroyIPiiEvT_S1_RSaIT0_E
	.def	__ZSt8_DestroyIPiiEvT_S1_RSaIT0_E;	.scl	2;	.type	32;	.endef
__ZSt8_DestroyIPiiEvT_S1_RSaIT0_E:
LFB2257:
	.cfi_startproc
	pushl	%ebp
	.cfi_def_cfa_offset 8
	.cfi_offset 5, -8
	movl	%esp, %ebp
	.cfi_def_cfa_register 5
	subl	$24, %esp
	movl	12(%ebp), %eax
	movl	%eax, 4(%esp)
	movl	8(%ebp), %eax
	movl	%eax, (%esp)
	call	__ZSt8_DestroyIPiEvT_S1_
	nop
	leave
	.cfi_restore 5
	.cfi_def_cfa 4, 4
	ret
	.cfi_endproc
LFE2257:
	.section	.text$_ZNSt16allocator_traitsISaIiEE9constructIiJRKiEEEvRS0_PT_DpOT0_,"x"
	.linkonce discard
	.globl	__ZNSt16allocator_traitsISaIiEE9constructIiJRKiEEEvRS0_PT_DpOT0_
	.def	__ZNSt16allocator_traitsISaIiEE9constructIiJRKiEEEvRS0_PT_DpOT0_;	.scl	2;	.type	32;	.endef
__ZNSt16allocator_traitsISaIiEE9constructIiJRKiEEEvRS0_PT_DpOT0_:
LFB2258:
	.cfi_startproc
	pushl	%ebp
	.cfi_def_cfa_offset 8
	.cfi_offset 5, -8
	movl	%esp, %ebp
	.cfi_def_cfa_register 5
	subl	$24, %esp
	movl	16(%ebp), %eax
	movl	%eax, (%esp)
	call	__ZSt7forwardIRKiEOT_RNSt16remove_referenceIS2_E4typeE
	movl	%eax, 4(%esp)
	movl	12(%ebp), %eax
	movl	%eax, (%esp)
	movl	8(%ebp), %ecx
	call	__ZN9__gnu_cxx13new_allocatorIiE9constructIiJRKiEEEvPT_DpOT0_
	subl	$8, %esp
	nop
	leave
	.cfi_restore 5
	.cfi_def_cfa 4, 4
	ret
	.cfi_endproc
LFE2258:
	.section	.text$_ZNSt6vectorIiSaIiEE3endEv,"x"
	.linkonce discard
	.align 2
	.globl	__ZNSt6vectorIiSaIiEE3endEv
	.def	__ZNSt6vectorIiSaIiEE3endEv;	.scl	2;	.type	32;	.endef
__ZNSt6vectorIiSaIiEE3endEv:
LFB2259:
	.cfi_startproc
	pushl	%ebp
	.cfi_def_cfa_offset 8
	.cfi_offset 5, -8
	movl	%esp, %ebp
	.cfi_def_cfa_register 5
	subl	$56, %esp
	movl	%ecx, -28(%ebp)
	movl	-28(%ebp), %eax
	leal	4(%eax), %edx
	leal	-12(%ebp), %eax
	movl	%edx, (%esp)
	movl	%eax, %ecx
	call	__ZN9__gnu_cxx17__normal_iteratorIPiSt6vectorIiSaIiEEEC1ERKS1_
	subl	$4, %esp
	movl	-12(%ebp), %eax
	leave
	.cfi_restore 5
	.cfi_def_cfa 4, 4
	ret
	.cfi_endproc
LFE2259:
	.section	.text$_ZNSt6vectorIiSaIiEE15_S_use_relocateEv,"x"
	.linkonce discard
	.globl	__ZNSt6vectorIiSaIiEE15_S_use_relocateEv
	.def	__ZNSt6vectorIiSaIiEE15_S_use_relocateEv;	.scl	2;	.type	32;	.endef
__ZNSt6vectorIiSaIiEE15_S_use_relocateEv:
LFB2261:
	.cfi_startproc
	pushl	%ebp
	.cfi_def_cfa_offset 8
	.cfi_offset 5, -8
	movl	%esp, %ebp
	.cfi_def_cfa_register 5
	subl	$40, %esp
	movb	%al, (%esp)
	call	__ZNSt6vectorIiSaIiEE19_S_nothrow_relocateESt17integral_constantIbLb1EE
	leave
	.cfi_restore 5
	.cfi_def_cfa 4, 4
	ret
	.cfi_endproc
LFE2261:
	.section	.text$_ZNSt6vectorIiSaIiEE19_S_nothrow_relocateESt17integral_constantIbLb1EE,"x"
	.linkonce discard
	.globl	__ZNSt6vectorIiSaIiEE19_S_nothrow_relocateESt17integral_constantIbLb1EE
	.def	__ZNSt6vectorIiSaIiEE19_S_nothrow_relocateESt17integral_constantIbLb1EE;	.scl	2;	.type	32;	.endef
__ZNSt6vectorIiSaIiEE19_S_nothrow_relocateESt17integral_constantIbLb1EE:
LFB2262:
	.cfi_startproc
	pushl	%ebp
	.cfi_def_cfa_offset 8
	.cfi_offset 5, -8
	movl	%esp, %ebp
	.cfi_def_cfa_register 5
	movl	$1, %eax
	popl	%ebp
	.cfi_restore 5
	.cfi_def_cfa 4, 4
	ret
	.cfi_endproc
LFE2262:
	.section .rdata,"dr"
LC4:
	.ascii "vector::_M_realloc_insert\0"
	.section	.text$_ZNSt6vectorIiSaIiEE17_M_realloc_insertIJRKiEEEvN9__gnu_cxx17__normal_iteratorIPiS1_EEDpOT_,"x"
	.linkonce discard
	.align 2
	.globl	__ZNSt6vectorIiSaIiEE17_M_realloc_insertIJRKiEEEvN9__gnu_cxx17__normal_iteratorIPiS1_EEDpOT_
	.def	__ZNSt6vectorIiSaIiEE17_M_realloc_insertIJRKiEEEvN9__gnu_cxx17__normal_iteratorIPiS1_EEDpOT_;	.scl	2;	.type	32;	.endef
__ZNSt6vectorIiSaIiEE17_M_realloc_insertIJRKiEEEvN9__gnu_cxx17__normal_iteratorIPiS1_EEDpOT_:
LFB2260:
	.cfi_startproc
	.cfi_personality 0,___gxx_personality_v0
	.cfi_lsda 0,LLSDA2260
	pushl	%ebp
	.cfi_def_cfa_offset 8
	.cfi_offset 5, -8
	movl	%esp, %ebp
	.cfi_def_cfa_register 5
	pushl	%ebx
	subl	$68, %esp
	.cfi_offset 3, -12
	movl	%ecx, -44(%ebp)
	movl	-44(%ebp), %eax
	movl	$LC4, 4(%esp)
	movl	$1, (%esp)
	movl	%eax, %ecx
LEHB9:
	call	__ZNKSt6vectorIiSaIiEE12_M_check_lenEjPKc
	subl	$8, %esp
	movl	%eax, -16(%ebp)
	movl	-44(%ebp), %eax
	movl	(%eax), %eax
	movl	%eax, -20(%ebp)
	movl	-44(%ebp), %eax
	movl	4(%eax), %eax
	movl	%eax, -24(%ebp)
	movl	-44(%ebp), %eax
	movl	%eax, %ecx
	call	__ZNSt6vectorIiSaIiEE5beginEv
	movl	%eax, -36(%ebp)
	leal	-36(%ebp), %eax
	movl	%eax, 4(%esp)
	leal	8(%ebp), %eax
	movl	%eax, (%esp)
	call	__ZN9__gnu_cxxmiIPiSt6vectorIiSaIiEEEENS_17__normal_iteratorIT_T0_E15difference_typeERKS8_SB_
	movl	%eax, -28(%ebp)
	movl	-44(%ebp), %eax
	movl	-16(%ebp), %edx
	movl	%edx, (%esp)
	movl	%eax, %ecx
	call	__ZNSt12_Vector_baseIiSaIiEE11_M_allocateEj
LEHE9:
	subl	$4, %esp
	movl	%eax, -32(%ebp)
	movl	-32(%ebp), %eax
	movl	%eax, -12(%ebp)
	movl	12(%ebp), %eax
	movl	%eax, (%esp)
	call	__ZSt7forwardIRKiEOT_RNSt16remove_referenceIS2_E4typeE
	movl	-28(%ebp), %edx
	leal	0(,%edx,4), %ecx
	movl	-32(%ebp), %edx
	addl	%edx, %ecx
	movl	-44(%ebp), %edx
	movl	%eax, 8(%esp)
	movl	%ecx, 4(%esp)
	movl	%edx, (%esp)
	call	__ZNSt16allocator_traitsISaIiEE9constructIiJRKiEEEvRS0_PT_DpOT0_
	movl	$0, -12(%ebp)
	call	__ZNSt6vectorIiSaIiEE15_S_use_relocateEv
	testb	%al, %al
	je	L67
	movl	-44(%ebp), %eax
	movl	%eax, %ecx
	call	__ZNSt12_Vector_baseIiSaIiEE19_M_get_Tp_allocatorEv
	movl	%eax, %ebx
	leal	8(%ebp), %ecx
	call	__ZNK9__gnu_cxx17__normal_iteratorIPiSt6vectorIiSaIiEEE4baseEv
	movl	(%eax), %eax
	movl	%ebx, 12(%esp)
	movl	-32(%ebp), %edx
	movl	%edx, 8(%esp)
	movl	%eax, 4(%esp)
	movl	-20(%ebp), %eax
	movl	%eax, (%esp)
	call	__ZNSt6vectorIiSaIiEE11_S_relocateEPiS2_S2_RS0_
	movl	%eax, -12(%ebp)
	addl	$4, -12(%ebp)
	movl	-44(%ebp), %eax
	movl	%eax, %ecx
	call	__ZNSt12_Vector_baseIiSaIiEE19_M_get_Tp_allocatorEv
	movl	%eax, %ebx
	leal	8(%ebp), %ecx
	call	__ZNK9__gnu_cxx17__normal_iteratorIPiSt6vectorIiSaIiEEE4baseEv
	movl	(%eax), %eax
	movl	%ebx, 12(%esp)
	movl	-12(%ebp), %edx
	movl	%edx, 8(%esp)
	movl	-24(%ebp), %edx
	movl	%edx, 4(%esp)
	movl	%eax, (%esp)
	call	__ZNSt6vectorIiSaIiEE11_S_relocateEPiS2_S2_RS0_
	movl	%eax, -12(%ebp)
	jmp	L68
L67:
	movl	-44(%ebp), %eax
	movl	%eax, %ecx
	call	__ZNSt12_Vector_baseIiSaIiEE19_M_get_Tp_allocatorEv
	movl	%eax, %ebx
	leal	8(%ebp), %ecx
	call	__ZNK9__gnu_cxx17__normal_iteratorIPiSt6vectorIiSaIiEEE4baseEv
	movl	(%eax), %eax
	movl	%ebx, 12(%esp)
	movl	-32(%ebp), %edx
	movl	%edx, 8(%esp)
	movl	%eax, 4(%esp)
	movl	-20(%ebp), %eax
	movl	%eax, (%esp)
LEHB10:
	call	__ZSt34__uninitialized_move_if_noexcept_aIPiS0_SaIiEET0_T_S3_S2_RT1_
	movl	%eax, -12(%ebp)
	addl	$4, -12(%ebp)
	movl	-44(%ebp), %eax
	movl	%eax, %ecx
	call	__ZNSt12_Vector_baseIiSaIiEE19_M_get_Tp_allocatorEv
	movl	%eax, %ebx
	leal	8(%ebp), %ecx
	call	__ZNK9__gnu_cxx17__normal_iteratorIPiSt6vectorIiSaIiEEE4baseEv
	movl	(%eax), %eax
	movl	%ebx, 12(%esp)
	movl	-12(%ebp), %edx
	movl	%edx, 8(%esp)
	movl	-24(%ebp), %edx
	movl	%edx, 4(%esp)
	movl	%eax, (%esp)
	call	__ZSt34__uninitialized_move_if_noexcept_aIPiS0_SaIiEET0_T_S3_S2_RT1_
LEHE10:
	movl	%eax, -12(%ebp)
L68:
	call	__ZNSt6vectorIiSaIiEE15_S_use_relocateEv
	xorl	$1, %eax
	testb	%al, %al
	je	L69
	movl	-44(%ebp), %eax
	movl	%eax, %ecx
	call	__ZNSt12_Vector_baseIiSaIiEE19_M_get_Tp_allocatorEv
	movl	%eax, 8(%esp)
	movl	-24(%ebp), %eax
	movl	%eax, 4(%esp)
	movl	-20(%ebp), %eax
	movl	%eax, (%esp)
LEHB11:
	call	__ZSt8_DestroyIPiiEvT_S1_RSaIT0_E
L69:
	movl	-44(%ebp), %eax
	movl	-44(%ebp), %edx
	movl	8(%edx), %edx
	subl	-20(%ebp), %edx
	sarl	$2, %edx
	movl	%edx, 4(%esp)
	movl	-20(%ebp), %edx
	movl	%edx, (%esp)
	movl	%eax, %ecx
	call	__ZNSt12_Vector_baseIiSaIiEE13_M_deallocateEPij
LEHE11:
	subl	$8, %esp
	movl	-44(%ebp), %eax
	movl	-32(%ebp), %edx
	movl	%edx, (%eax)
	movl	-44(%ebp), %eax
	movl	-12(%ebp), %edx
	movl	%edx, 4(%eax)
	movl	-16(%ebp), %eax
	leal	0(,%eax,4), %edx
	movl	-32(%ebp), %eax
	addl	%eax, %edx
	movl	-44(%ebp), %eax
	movl	%edx, 8(%eax)
	jmp	L76
L74:
	movl	%eax, (%esp)
	call	___cxa_begin_catch
	cmpl	$0, -12(%ebp)
	jne	L71
	movl	-28(%ebp), %eax
	leal	0(,%eax,4), %edx
	movl	-32(%ebp), %eax
	addl	%eax, %edx
	movl	-44(%ebp), %eax
	movl	%edx, 4(%esp)
	movl	%eax, (%esp)
	call	__ZNSt16allocator_traitsISaIiEE7destroyIiEEvRS0_PT_
	jmp	L72
L71:
	movl	-44(%ebp), %eax
	movl	%eax, %ecx
	call	__ZNSt12_Vector_baseIiSaIiEE19_M_get_Tp_allocatorEv
	movl	%eax, 8(%esp)
	movl	-12(%ebp), %eax
	movl	%eax, 4(%esp)
	movl	-32(%ebp), %eax
	movl	%eax, (%esp)
LEHB12:
	call	__ZSt8_DestroyIPiiEvT_S1_RSaIT0_E
L72:
	movl	-44(%ebp), %eax
	movl	-16(%ebp), %edx
	movl	%edx, 4(%esp)
	movl	-32(%ebp), %edx
	movl	%edx, (%esp)
	movl	%eax, %ecx
	call	__ZNSt12_Vector_baseIiSaIiEE13_M_deallocateEPij
	subl	$8, %esp
	call	___cxa_rethrow
LEHE12:
L75:
	movl	%eax, %ebx
	call	___cxa_end_catch
	movl	%ebx, %eax
	movl	%eax, (%esp)
LEHB13:
	call	__Unwind_Resume
LEHE13:
L76:
	movl	-4(%ebp), %ebx
	leave
	.cfi_restore 5
	.cfi_restore 3
	.cfi_def_cfa 4, 4
	ret	$8
	.cfi_endproc
LFE2260:
	.section	.gcc_except_table,"w"
	.align 4
LLSDA2260:
	.byte	0xff
	.byte	0
	.uleb128 LLSDATT2260-LLSDATTD2260
LLSDATTD2260:
	.byte	0x1
	.uleb128 LLSDACSE2260-LLSDACSB2260
LLSDACSB2260:
	.uleb128 LEHB9-LFB2260
	.uleb128 LEHE9-LEHB9
	.uleb128 0
	.uleb128 0
	.uleb128 LEHB10-LFB2260
	.uleb128 LEHE10-LEHB10
	.uleb128 L74-LFB2260
	.uleb128 0x1
	.uleb128 LEHB11-LFB2260
	.uleb128 LEHE11-LEHB11
	.uleb128 0
	.uleb128 0
	.uleb128 LEHB12-LFB2260
	.uleb128 LEHE12-LEHB12
	.uleb128 L75-LFB2260
	.uleb128 0
	.uleb128 LEHB13-LFB2260
	.uleb128 LEHE13-LEHB13
	.uleb128 0
	.uleb128 0
LLSDACSE2260:
	.byte	0x1
	.byte	0
	.align 4
	.long	0
LLSDATT2260:
	.section	.text$_ZNSt6vectorIiSaIiEE17_M_realloc_insertIJRKiEEEvN9__gnu_cxx17__normal_iteratorIPiS1_EEDpOT_,"x"
	.linkonce discard
	.section	.text$_ZN9__gnu_cxx14__alloc_traitsISaIiEiE17_S_select_on_copyERKS1_,"x"
	.linkonce discard
	.globl	__ZN9__gnu_cxx14__alloc_traitsISaIiEiE17_S_select_on_copyERKS1_
	.def	__ZN9__gnu_cxx14__alloc_traitsISaIiEiE17_S_select_on_copyERKS1_;	.scl	2;	.type	32;	.endef
__ZN9__gnu_cxx14__alloc_traitsISaIiEiE17_S_select_on_copyERKS1_:
LFB2265:
	.cfi_startproc
	pushl	%ebp
	.cfi_def_cfa_offset 8
	.cfi_offset 5, -8
	movl	%esp, %ebp
	.cfi_def_cfa_register 5
	subl	$24, %esp
	movl	8(%ebp), %eax
	movl	12(%ebp), %edx
	movl	%edx, 4(%esp)
	movl	%eax, (%esp)
	call	__ZNSt16allocator_traitsISaIiEE37select_on_container_copy_constructionERKS0_
	movl	8(%ebp), %eax
	leave
	.cfi_restore 5
	.cfi_def_cfa 4, 4
	ret
	.cfi_endproc
LFE2265:
	.section	.text$_ZNKSt12_Vector_baseIiSaIiEE19_M_get_Tp_allocatorEv,"x"
	.linkonce discard
	.align 2
	.globl	__ZNKSt12_Vector_baseIiSaIiEE19_M_get_Tp_allocatorEv
	.def	__ZNKSt12_Vector_baseIiSaIiEE19_M_get_Tp_allocatorEv;	.scl	2;	.type	32;	.endef
__ZNKSt12_Vector_baseIiSaIiEE19_M_get_Tp_allocatorEv:
LFB2266:
	.cfi_startproc
	pushl	%ebp
	.cfi_def_cfa_offset 8
	.cfi_offset 5, -8
	movl	%esp, %ebp
	.cfi_def_cfa_register 5
	subl	$4, %esp
	movl	%ecx, -4(%ebp)
	movl	-4(%ebp), %eax
	leave
	.cfi_restore 5
	.cfi_def_cfa 4, 4
	ret
	.cfi_endproc
LFE2266:
	.section	.text$_ZNSt12_Vector_baseIiSaIiEEC2EjRKS0_,"x"
	.linkonce discard
	.align 2
	.globl	__ZNSt12_Vector_baseIiSaIiEEC2EjRKS0_
	.def	__ZNSt12_Vector_baseIiSaIiEEC2EjRKS0_;	.scl	2;	.type	32;	.endef
__ZNSt12_Vector_baseIiSaIiEEC2EjRKS0_:
LFB2268:
	.cfi_startproc
	.cfi_personality 0,___gxx_personality_v0
	.cfi_lsda 0,LLSDA2268
	pushl	%ebp
	.cfi_def_cfa_offset 8
	.cfi_offset 5, -8
	movl	%esp, %ebp
	.cfi_def_cfa_register 5
	pushl	%ebx
	subl	$36, %esp
	.cfi_offset 3, -12
	movl	%ecx, -12(%ebp)
	movl	-12(%ebp), %eax
	movl	12(%ebp), %edx
	movl	%edx, (%esp)
	movl	%eax, %ecx
	call	__ZNSt12_Vector_baseIiSaIiEE12_Vector_implC1ERKS0_
	subl	$4, %esp
	movl	-12(%ebp), %eax
	movl	8(%ebp), %edx
	movl	%edx, (%esp)
	movl	%eax, %ecx
LEHB14:
	call	__ZNSt12_Vector_baseIiSaIiEE17_M_create_storageEj
LEHE14:
	subl	$4, %esp
	jmp	L84
L83:
	movl	%eax, %ebx
	movl	-12(%ebp), %eax
	movl	%eax, %ecx
	call	__ZNSt12_Vector_baseIiSaIiEE12_Vector_implD1Ev
	movl	%ebx, %eax
	movl	%eax, (%esp)
LEHB15:
	call	__Unwind_Resume
LEHE15:
L84:
	movl	-4(%ebp), %ebx
	leave
	.cfi_restore 5
	.cfi_restore 3
	.cfi_def_cfa 4, 4
	ret	$8
	.cfi_endproc
LFE2268:
	.section	.gcc_except_table,"w"
LLSDA2268:
	.byte	0xff
	.byte	0xff
	.byte	0x1
	.uleb128 LLSDACSE2268-LLSDACSB2268
LLSDACSB2268:
	.uleb128 LEHB14-LFB2268
	.uleb128 LEHE14-LEHB14
	.uleb128 L83-LFB2268
	.uleb128 0
	.uleb128 LEHB15-LFB2268
	.uleb128 LEHE15-LEHB15
	.uleb128 0
	.uleb128 0
LLSDACSE2268:
	.section	.text$_ZNSt12_Vector_baseIiSaIiEEC2EjRKS0_,"x"
	.linkonce discard
	.section	.text$_ZNKSt6vectorIiSaIiEE5beginEv,"x"
	.linkonce discard
	.align 2
	.globl	__ZNKSt6vectorIiSaIiEE5beginEv
	.def	__ZNKSt6vectorIiSaIiEE5beginEv;	.scl	2;	.type	32;	.endef
__ZNKSt6vectorIiSaIiEE5beginEv:
LFB2270:
	.cfi_startproc
	pushl	%ebp
	.cfi_def_cfa_offset 8
	.cfi_offset 5, -8
	movl	%esp, %ebp
	.cfi_def_cfa_register 5
	subl	$56, %esp
	movl	%ecx, -28(%ebp)
	movl	-28(%ebp), %eax
	movl	(%eax), %eax
	movl	%eax, -12(%ebp)
	leal	-16(%ebp), %eax
	leal	-12(%ebp), %edx
	movl	%edx, (%esp)
	movl	%eax, %ecx
	call	__ZN9__gnu_cxx17__normal_iteratorIPKiSt6vectorIiSaIiEEEC1ERKS2_
	subl	$4, %esp
	movl	-16(%ebp), %eax
	leave
	.cfi_restore 5
	.cfi_def_cfa 4, 4
	ret
	.cfi_endproc
LFE2270:
	.section	.text$_ZNKSt6vectorIiSaIiEE3endEv,"x"
	.linkonce discard
	.align 2
	.globl	__ZNKSt6vectorIiSaIiEE3endEv
	.def	__ZNKSt6vectorIiSaIiEE3endEv;	.scl	2;	.type	32;	.endef
__ZNKSt6vectorIiSaIiEE3endEv:
LFB2271:
	.cfi_startproc
	pushl	%ebp
	.cfi_def_cfa_offset 8
	.cfi_offset 5, -8
	movl	%esp, %ebp
	.cfi_def_cfa_register 5
	subl	$56, %esp
	movl	%ecx, -28(%ebp)
	movl	-28(%ebp), %eax
	movl	4(%eax), %eax
	movl	%eax, -12(%ebp)
	leal	-16(%ebp), %eax
	leal	-12(%ebp), %edx
	movl	%edx, (%esp)
	movl	%eax, %ecx
	call	__ZN9__gnu_cxx17__normal_iteratorIPKiSt6vectorIiSaIiEEEC1ERKS2_
	subl	$4, %esp
	movl	-16(%ebp), %eax
	leave
	.cfi_restore 5
	.cfi_def_cfa 4, 4
	ret
	.cfi_endproc
LFE2271:
	.section	.text$_ZSt22__uninitialized_copy_aIN9__gnu_cxx17__normal_iteratorIPKiSt6vectorIiSaIiEEEEPiiET0_T_SA_S9_RSaIT1_E,"x"
	.linkonce discard
	.globl	__ZSt22__uninitialized_copy_aIN9__gnu_cxx17__normal_iteratorIPKiSt6vectorIiSaIiEEEEPiiET0_T_SA_S9_RSaIT1_E
	.def	__ZSt22__uninitialized_copy_aIN9__gnu_cxx17__normal_iteratorIPKiSt6vectorIiSaIiEEEEPiiET0_T_SA_S9_RSaIT1_E;	.scl	2;	.type	32;	.endef
__ZSt22__uninitialized_copy_aIN9__gnu_cxx17__normal_iteratorIPKiSt6vectorIiSaIiEEEEPiiET0_T_SA_S9_RSaIT1_E:
LFB2272:
	.cfi_startproc
	pushl	%ebp
	.cfi_def_cfa_offset 8
	.cfi_offset 5, -8
	movl	%esp, %ebp
	.cfi_def_cfa_register 5
	subl	$24, %esp
	movl	16(%ebp), %eax
	movl	%eax, 8(%esp)
	movl	12(%ebp), %eax
	movl	%eax, 4(%esp)
	movl	8(%ebp), %eax
	movl	%eax, (%esp)
	call	__ZSt18uninitialized_copyIN9__gnu_cxx17__normal_iteratorIPKiSt6vectorIiSaIiEEEEPiET0_T_SA_S9_
	leave
	.cfi_restore 5
	.cfi_def_cfa 4, 4
	ret
	.cfi_endproc
LFE2272:
	.section	.text$_ZN9__gnu_cxx13new_allocatorIiEC2Ev,"x"
	.linkonce discard
	.align 2
	.globl	__ZN9__gnu_cxx13new_allocatorIiEC2Ev
	.def	__ZN9__gnu_cxx13new_allocatorIiEC2Ev;	.scl	2;	.type	32;	.endef
__ZN9__gnu_cxx13new_allocatorIiEC2Ev:
LFB2308:
	.cfi_startproc
	pushl	%ebp
	.cfi_def_cfa_offset 8
	.cfi_offset 5, -8
	movl	%esp, %ebp
	.cfi_def_cfa_register 5
	subl	$4, %esp
	movl	%ecx, -4(%ebp)
	nop
	leave
	.cfi_restore 5
	.cfi_def_cfa 4, 4
	ret
	.cfi_endproc
LFE2308:
	.section	.text$_ZNSt16allocator_traitsISaIiEE10deallocateERS0_Pij,"x"
	.linkonce discard
	.globl	__ZNSt16allocator_traitsISaIiEE10deallocateERS0_Pij
	.def	__ZNSt16allocator_traitsISaIiEE10deallocateERS0_Pij;	.scl	2;	.type	32;	.endef
__ZNSt16allocator_traitsISaIiEE10deallocateERS0_Pij:
LFB2310:
	.cfi_startproc
	pushl	%ebp
	.cfi_def_cfa_offset 8
	.cfi_offset 5, -8
	movl	%esp, %ebp
	.cfi_def_cfa_register 5
	subl	$24, %esp
	movl	16(%ebp), %eax
	movl	%eax, 4(%esp)
	movl	12(%ebp), %eax
	movl	%eax, (%esp)
	movl	8(%ebp), %ecx
	call	__ZN9__gnu_cxx13new_allocatorIiE10deallocateEPij
	subl	$8, %esp
	nop
	leave
	.cfi_restore 5
	.cfi_def_cfa 4, 4
	ret
	.cfi_endproc
LFE2310:
	.section	.text$_ZSt8_DestroyIPiEvT_S1_,"x"
	.linkonce discard
	.globl	__ZSt8_DestroyIPiEvT_S1_
	.def	__ZSt8_DestroyIPiEvT_S1_;	.scl	2;	.type	32;	.endef
__ZSt8_DestroyIPiEvT_S1_:
LFB2311:
	.cfi_startproc
	pushl	%ebp
	.cfi_def_cfa_offset 8
	.cfi_offset 5, -8
	movl	%esp, %ebp
	.cfi_def_cfa_register 5
	subl	$24, %esp
	movl	12(%ebp), %eax
	movl	%eax, 4(%esp)
	movl	8(%ebp), %eax
	movl	%eax, (%esp)
	call	__ZNSt12_Destroy_auxILb1EE9__destroyIPiEEvT_S3_
	nop
	leave
	.cfi_restore 5
	.cfi_def_cfa 4, 4
	ret
	.cfi_endproc
LFE2311:
	.section	.text$_ZSt7forwardIRKiEOT_RNSt16remove_referenceIS2_E4typeE,"x"
	.linkonce discard
	.globl	__ZSt7forwardIRKiEOT_RNSt16remove_referenceIS2_E4typeE
	.def	__ZSt7forwardIRKiEOT_RNSt16remove_referenceIS2_E4typeE;	.scl	2;	.type	32;	.endef
__ZSt7forwardIRKiEOT_RNSt16remove_referenceIS2_E4typeE:
LFB2312:
	.cfi_startproc
	pushl	%ebp
	.cfi_def_cfa_offset 8
	.cfi_offset 5, -8
	movl	%esp, %ebp
	.cfi_def_cfa_register 5
	movl	8(%ebp), %eax
	popl	%ebp
	.cfi_restore 5
	.cfi_def_cfa 4, 4
	ret
	.cfi_endproc
LFE2312:
	.section	.text$_ZN9__gnu_cxx13new_allocatorIiE9constructIiJRKiEEEvPT_DpOT0_,"x"
	.linkonce discard
	.align 2
	.globl	__ZN9__gnu_cxx13new_allocatorIiE9constructIiJRKiEEEvPT_DpOT0_
	.def	__ZN9__gnu_cxx13new_allocatorIiE9constructIiJRKiEEEvPT_DpOT0_;	.scl	2;	.type	32;	.endef
__ZN9__gnu_cxx13new_allocatorIiE9constructIiJRKiEEEvPT_DpOT0_:
LFB2313:
	.cfi_startproc
	pushl	%ebp
	.cfi_def_cfa_offset 8
	.cfi_offset 5, -8
	movl	%esp, %ebp
	.cfi_def_cfa_register 5
	pushl	%ebx
	subl	$36, %esp
	.cfi_offset 3, -12
	movl	%ecx, -12(%ebp)
	movl	12(%ebp), %eax
	movl	%eax, (%esp)
	call	__ZSt7forwardIRKiEOT_RNSt16remove_referenceIS2_E4typeE
	movl	(%eax), %ebx
	movl	8(%ebp), %eax
	movl	%eax, 4(%esp)
	movl	$4, (%esp)
	call	__ZnwjPv
	movl	%ebx, (%eax)
	nop
	addl	$36, %esp
	popl	%ebx
	.cfi_restore 3
	popl	%ebp
	.cfi_restore 5
	.cfi_def_cfa 4, 4
	ret	$8
	.cfi_endproc
LFE2313:
	.section	.text$_ZN9__gnu_cxx17__normal_iteratorIPiSt6vectorIiSaIiEEEC1ERKS1_,"x"
	.linkonce discard
	.align 2
	.globl	__ZN9__gnu_cxx17__normal_iteratorIPiSt6vectorIiSaIiEEEC1ERKS1_
	.def	__ZN9__gnu_cxx17__normal_iteratorIPiSt6vectorIiSaIiEEEC1ERKS1_;	.scl	2;	.type	32;	.endef
__ZN9__gnu_cxx17__normal_iteratorIPiSt6vectorIiSaIiEEEC1ERKS1_:
LFB2316:
	.cfi_startproc
	pushl	%ebp
	.cfi_def_cfa_offset 8
	.cfi_offset 5, -8
	movl	%esp, %ebp
	.cfi_def_cfa_register 5
	subl	$4, %esp
	movl	%ecx, -4(%ebp)
	movl	8(%ebp), %eax
	movl	(%eax), %edx
	movl	-4(%ebp), %eax
	movl	%edx, (%eax)
	nop
	leave
	.cfi_restore 5
	.cfi_def_cfa 4, 4
	ret	$4
	.cfi_endproc
LFE2316:
	.section	.text$_ZNKSt6vectorIiSaIiEE12_M_check_lenEjPKc,"x"
	.linkonce discard
	.align 2
	.globl	__ZNKSt6vectorIiSaIiEE12_M_check_lenEjPKc
	.def	__ZNKSt6vectorIiSaIiEE12_M_check_lenEjPKc;	.scl	2;	.type	32;	.endef
__ZNKSt6vectorIiSaIiEE12_M_check_lenEjPKc:
LFB2317:
	.cfi_startproc
	pushl	%ebp
	.cfi_def_cfa_offset 8
	.cfi_offset 5, -8
	movl	%esp, %ebp
	.cfi_def_cfa_register 5
	pushl	%ebx
	subl	$52, %esp
	.cfi_offset 3, -12
	movl	%ecx, -28(%ebp)
	movl	-28(%ebp), %eax
	movl	%eax, %ecx
	call	__ZNKSt6vectorIiSaIiEE8max_sizeEv
	movl	%eax, %ebx
	movl	-28(%ebp), %eax
	movl	%eax, %ecx
	call	__ZNKSt6vectorIiSaIiEE4sizeEv
	movl	%ebx, %edx
	subl	%eax, %edx
	movl	8(%ebp), %eax
	cmpl	%eax, %edx
	setb	%al
	testb	%al, %al
	je	L99
	movl	12(%ebp), %eax
	movl	%eax, (%esp)
	call	__ZSt20__throw_length_errorPKc
L99:
	movl	-28(%ebp), %eax
	movl	%eax, %ecx
	call	__ZNKSt6vectorIiSaIiEE4sizeEv
	movl	%eax, %ebx
	movl	-28(%ebp), %eax
	movl	%eax, %ecx
	call	__ZNKSt6vectorIiSaIiEE4sizeEv
	movl	%eax, -16(%ebp)
	leal	8(%ebp), %eax
	movl	%eax, 4(%esp)
	leal	-16(%ebp), %eax
	movl	%eax, (%esp)
	call	__ZSt3maxIjERKT_S2_S2_
	movl	(%eax), %eax
	addl	%ebx, %eax
	movl	%eax, -12(%ebp)
	movl	-28(%ebp), %eax
	movl	%eax, %ecx
	call	__ZNKSt6vectorIiSaIiEE4sizeEv
	cmpl	%eax, -12(%ebp)
	jb	L100
	movl	-28(%ebp), %eax
	movl	%eax, %ecx
	call	__ZNKSt6vectorIiSaIiEE8max_sizeEv
	cmpl	%eax, -12(%ebp)
	jbe	L101
L100:
	movl	-28(%ebp), %eax
	movl	%eax, %ecx
	call	__ZNKSt6vectorIiSaIiEE8max_sizeEv
	jmp	L102
L101:
	movl	-12(%ebp), %eax
L102:
	addl	$52, %esp
	popl	%ebx
	.cfi_restore 3
	popl	%ebp
	.cfi_restore 5
	.cfi_def_cfa 4, 4
	ret	$8
	.cfi_endproc
LFE2317:
	.section	.text$_ZNSt6vectorIiSaIiEE5beginEv,"x"
	.linkonce discard
	.align 2
	.globl	__ZNSt6vectorIiSaIiEE5beginEv
	.def	__ZNSt6vectorIiSaIiEE5beginEv;	.scl	2;	.type	32;	.endef
__ZNSt6vectorIiSaIiEE5beginEv:
LFB2318:
	.cfi_startproc
	pushl	%ebp
	.cfi_def_cfa_offset 8
	.cfi_offset 5, -8
	movl	%esp, %ebp
	.cfi_def_cfa_register 5
	subl	$56, %esp
	movl	%ecx, -28(%ebp)
	movl	-28(%ebp), %edx
	leal	-12(%ebp), %eax
	movl	%edx, (%esp)
	movl	%eax, %ecx
	call	__ZN9__gnu_cxx17__normal_iteratorIPiSt6vectorIiSaIiEEEC1ERKS1_
	subl	$4, %esp
	movl	-12(%ebp), %eax
	leave
	.cfi_restore 5
	.cfi_def_cfa 4, 4
	ret
	.cfi_endproc
LFE2318:
	.section	.text$_ZN9__gnu_cxxmiIPiSt6vectorIiSaIiEEEENS_17__normal_iteratorIT_T0_E15difference_typeERKS8_SB_,"x"
	.linkonce discard
	.globl	__ZN9__gnu_cxxmiIPiSt6vectorIiSaIiEEEENS_17__normal_iteratorIT_T0_E15difference_typeERKS8_SB_
	.def	__ZN9__gnu_cxxmiIPiSt6vectorIiSaIiEEEENS_17__normal_iteratorIT_T0_E15difference_typeERKS8_SB_;	.scl	2;	.type	32;	.endef
__ZN9__gnu_cxxmiIPiSt6vectorIiSaIiEEEENS_17__normal_iteratorIT_T0_E15difference_typeERKS8_SB_:
LFB2319:
	.cfi_startproc
	pushl	%ebp
	.cfi_def_cfa_offset 8
	.cfi_offset 5, -8
	movl	%esp, %ebp
	.cfi_def_cfa_register 5
	pushl	%ebx
	subl	$4, %esp
	.cfi_offset 3, -12
	movl	8(%ebp), %ecx
	call	__ZNK9__gnu_cxx17__normal_iteratorIPiSt6vectorIiSaIiEEE4baseEv
	movl	(%eax), %ebx
	movl	12(%ebp), %eax
	movl	%eax, %ecx
	call	__ZNK9__gnu_cxx17__normal_iteratorIPiSt6vectorIiSaIiEEE4baseEv
	movl	(%eax), %eax
	subl	%eax, %ebx
	movl	%ebx, %eax
	sarl	$2, %eax
	addl	$4, %esp
	popl	%ebx
	.cfi_restore 3
	popl	%ebp
	.cfi_restore 5
	.cfi_def_cfa 4, 4
	ret
	.cfi_endproc
LFE2319:
	.section	.text$_ZNSt12_Vector_baseIiSaIiEE11_M_allocateEj,"x"
	.linkonce discard
	.align 2
	.globl	__ZNSt12_Vector_baseIiSaIiEE11_M_allocateEj
	.def	__ZNSt12_Vector_baseIiSaIiEE11_M_allocateEj;	.scl	2;	.type	32;	.endef
__ZNSt12_Vector_baseIiSaIiEE11_M_allocateEj:
LFB2320:
	.cfi_startproc
	pushl	%ebp
	.cfi_def_cfa_offset 8
	.cfi_offset 5, -8
	movl	%esp, %ebp
	.cfi_def_cfa_register 5
	subl	$40, %esp
	movl	%ecx, -12(%ebp)
	cmpl	$0, 8(%ebp)
	je	L109
	movl	-12(%ebp), %eax
	movl	8(%ebp), %edx
	movl	%edx, 4(%esp)
	movl	%eax, (%esp)
	call	__ZNSt16allocator_traitsISaIiEE8allocateERS0_j
	jmp	L111
L109:
	movl	$0, %eax
L111:
	leave
	.cfi_restore 5
	.cfi_def_cfa 4, 4
	ret	$4
	.cfi_endproc
LFE2320:
	.section	.text$_ZNSt6vectorIiSaIiEE11_S_relocateEPiS2_S2_RS0_,"x"
	.linkonce discard
	.globl	__ZNSt6vectorIiSaIiEE11_S_relocateEPiS2_S2_RS0_
	.def	__ZNSt6vectorIiSaIiEE11_S_relocateEPiS2_S2_RS0_;	.scl	2;	.type	32;	.endef
__ZNSt6vectorIiSaIiEE11_S_relocateEPiS2_S2_RS0_:
LFB2321:
	.cfi_startproc
	pushl	%ebp
	.cfi_def_cfa_offset 8
	.cfi_offset 5, -8
	movl	%esp, %ebp
	.cfi_def_cfa_register 5
	subl	$56, %esp
	movb	%al, 16(%esp)
	movl	20(%ebp), %eax
	movl	%eax, 12(%esp)
	movl	16(%ebp), %eax
	movl	%eax, 8(%esp)
	movl	12(%ebp), %eax
	movl	%eax, 4(%esp)
	movl	8(%ebp), %eax
	movl	%eax, (%esp)
	call	__ZNSt6vectorIiSaIiEE14_S_do_relocateEPiS2_S2_RS0_St17integral_constantIbLb1EE
	leave
	.cfi_restore 5
	.cfi_def_cfa 4, 4
	ret
	.cfi_endproc
LFE2321:
	.section	.text$_ZNK9__gnu_cxx17__normal_iteratorIPiSt6vectorIiSaIiEEE4baseEv,"x"
	.linkonce discard
	.align 2
	.globl	__ZNK9__gnu_cxx17__normal_iteratorIPiSt6vectorIiSaIiEEE4baseEv
	.def	__ZNK9__gnu_cxx17__normal_iteratorIPiSt6vectorIiSaIiEEE4baseEv;	.scl	2;	.type	32;	.endef
__ZNK9__gnu_cxx17__normal_iteratorIPiSt6vectorIiSaIiEEE4baseEv:
LFB2322:
	.cfi_startproc
	pushl	%ebp
	.cfi_def_cfa_offset 8
	.cfi_offset 5, -8
	movl	%esp, %ebp
	.cfi_def_cfa_register 5
	subl	$4, %esp
	movl	%ecx, -4(%ebp)
	movl	-4(%ebp), %eax
	leave
	.cfi_restore 5
	.cfi_def_cfa 4, 4
	ret
	.cfi_endproc
LFE2322:
	.section	.text$_ZSt34__uninitialized_move_if_noexcept_aIPiS0_SaIiEET0_T_S3_S2_RT1_,"x"
	.linkonce discard
	.globl	__ZSt34__uninitialized_move_if_noexcept_aIPiS0_SaIiEET0_T_S3_S2_RT1_
	.def	__ZSt34__uninitialized_move_if_noexcept_aIPiS0_SaIiEET0_T_S3_S2_RT1_;	.scl	2;	.type	32;	.endef
__ZSt34__uninitialized_move_if_noexcept_aIPiS0_SaIiEET0_T_S3_S2_RT1_:
LFB2323:
	.cfi_startproc
	pushl	%ebp
	.cfi_def_cfa_offset 8
	.cfi_offset 5, -8
	movl	%esp, %ebp
	.cfi_def_cfa_register 5
	pushl	%ebx
	subl	$20, %esp
	.cfi_offset 3, -12
	movl	12(%ebp), %eax
	movl	%eax, (%esp)
	call	__ZSt32__make_move_if_noexcept_iteratorIiSt13move_iteratorIPiEET0_PT_
	movl	%eax, %ebx
	movl	8(%ebp), %eax
	movl	%eax, (%esp)
	call	__ZSt32__make_move_if_noexcept_iteratorIiSt13move_iteratorIPiEET0_PT_
	movl	20(%ebp), %edx
	movl	%edx, 12(%esp)
	movl	16(%ebp), %edx
	movl	%edx, 8(%esp)
	movl	%ebx, 4(%esp)
	movl	%eax, (%esp)
	call	__ZSt22__uninitialized_copy_aISt13move_iteratorIPiES1_iET0_T_S4_S3_RSaIT1_E
	addl	$20, %esp
	popl	%ebx
	.cfi_restore 3
	popl	%ebp
	.cfi_restore 5
	.cfi_def_cfa 4, 4
	ret
	.cfi_endproc
LFE2323:
	.section	.text$_ZNSt16allocator_traitsISaIiEE7destroyIiEEvRS0_PT_,"x"
	.linkonce discard
	.globl	__ZNSt16allocator_traitsISaIiEE7destroyIiEEvRS0_PT_
	.def	__ZNSt16allocator_traitsISaIiEE7destroyIiEEvRS0_PT_;	.scl	2;	.type	32;	.endef
__ZNSt16allocator_traitsISaIiEE7destroyIiEEvRS0_PT_:
LFB2324:
	.cfi_startproc
	pushl	%ebp
	.cfi_def_cfa_offset 8
	.cfi_offset 5, -8
	movl	%esp, %ebp
	.cfi_def_cfa_register 5
	subl	$24, %esp
	movl	12(%ebp), %eax
	movl	%eax, (%esp)
	movl	8(%ebp), %ecx
	call	__ZN9__gnu_cxx13new_allocatorIiE7destroyIiEEvPT_
	subl	$4, %esp
	nop
	leave
	.cfi_restore 5
	.cfi_def_cfa 4, 4
	ret
	.cfi_endproc
LFE2324:
	.section	.text$_ZNSt16allocator_traitsISaIiEE37select_on_container_copy_constructionERKS0_,"x"
	.linkonce discard
	.globl	__ZNSt16allocator_traitsISaIiEE37select_on_container_copy_constructionERKS0_
	.def	__ZNSt16allocator_traitsISaIiEE37select_on_container_copy_constructionERKS0_;	.scl	2;	.type	32;	.endef
__ZNSt16allocator_traitsISaIiEE37select_on_container_copy_constructionERKS0_:
LFB2326:
	.cfi_startproc
	pushl	%ebp
	.cfi_def_cfa_offset 8
	.cfi_offset 5, -8
	movl	%esp, %ebp
	.cfi_def_cfa_register 5
	subl	$24, %esp
	movl	12(%ebp), %eax
	movl	%eax, (%esp)
	movl	8(%ebp), %ecx
	call	__ZNSaIiEC1ERKS_
	subl	$4, %esp
	movl	8(%ebp), %eax
	leave
	.cfi_restore 5
	.cfi_def_cfa 4, 4
	ret
	.cfi_endproc
LFE2326:
	.section	.text$_ZNSaIiEC2ERKS_,"x"
	.linkonce discard
	.align 2
	.globl	__ZNSaIiEC2ERKS_
	.def	__ZNSaIiEC2ERKS_;	.scl	2;	.type	32;	.endef
__ZNSaIiEC2ERKS_:
LFB2328:
	.cfi_startproc
	pushl	%ebp
	.cfi_def_cfa_offset 8
	.cfi_offset 5, -8
	movl	%esp, %ebp
	.cfi_def_cfa_register 5
	subl	$40, %esp
	movl	%ecx, -12(%ebp)
	movl	-12(%ebp), %eax
	movl	8(%ebp), %edx
	movl	%edx, (%esp)
	movl	%eax, %ecx
	call	__ZN9__gnu_cxx13new_allocatorIiEC2ERKS1_
	subl	$4, %esp
	nop
	leave
	.cfi_restore 5
	.cfi_def_cfa 4, 4
	ret	$4
	.cfi_endproc
LFE2328:
	.section	.text$_ZNSaIiEC1ERKS_,"x"
	.linkonce discard
	.align 2
	.globl	__ZNSaIiEC1ERKS_
	.def	__ZNSaIiEC1ERKS_;	.scl	2;	.type	32;	.endef
__ZNSaIiEC1ERKS_:
LFB2329:
	.cfi_startproc
	pushl	%ebp
	.cfi_def_cfa_offset 8
	.cfi_offset 5, -8
	movl	%esp, %ebp
	.cfi_def_cfa_register 5
	subl	$40, %esp
	movl	%ecx, -12(%ebp)
	movl	-12(%ebp), %eax
	movl	8(%ebp), %edx
	movl	%edx, (%esp)
	movl	%eax, %ecx
	call	__ZN9__gnu_cxx13new_allocatorIiEC2ERKS1_
	subl	$4, %esp
	nop
	leave
	.cfi_restore 5
	.cfi_def_cfa 4, 4
	ret	$4
	.cfi_endproc
LFE2329:
	.section	.text$_ZNSt12_Vector_baseIiSaIiEE12_Vector_implC1ERKS0_,"x"
	.linkonce discard
	.align 2
	.globl	__ZNSt12_Vector_baseIiSaIiEE12_Vector_implC1ERKS0_
	.def	__ZNSt12_Vector_baseIiSaIiEE12_Vector_implC1ERKS0_;	.scl	2;	.type	32;	.endef
__ZNSt12_Vector_baseIiSaIiEE12_Vector_implC1ERKS0_:
LFB2332:
	.cfi_startproc
	pushl	%ebp
	.cfi_def_cfa_offset 8
	.cfi_offset 5, -8
	movl	%esp, %ebp
	.cfi_def_cfa_register 5
	subl	$40, %esp
	movl	%ecx, -12(%ebp)
	movl	-12(%ebp), %eax
	movl	8(%ebp), %edx
	movl	%edx, (%esp)
	movl	%eax, %ecx
	call	__ZNSaIiEC2ERKS_
	subl	$4, %esp
	movl	-12(%ebp), %eax
	movl	%eax, %ecx
	call	__ZNSt12_Vector_baseIiSaIiEE17_Vector_impl_dataC2Ev
	nop
	leave
	.cfi_restore 5
	.cfi_def_cfa 4, 4
	ret	$4
	.cfi_endproc
LFE2332:
	.section	.text$_ZNSt12_Vector_baseIiSaIiEE17_M_create_storageEj,"x"
	.linkonce discard
	.align 2
	.globl	__ZNSt12_Vector_baseIiSaIiEE17_M_create_storageEj
	.def	__ZNSt12_Vector_baseIiSaIiEE17_M_create_storageEj;	.scl	2;	.type	32;	.endef
__ZNSt12_Vector_baseIiSaIiEE17_M_create_storageEj:
LFB2333:
	.cfi_startproc
	pushl	%ebp
	.cfi_def_cfa_offset 8
	.cfi_offset 5, -8
	movl	%esp, %ebp
	.cfi_def_cfa_register 5
	subl	$40, %esp
	movl	%ecx, -12(%ebp)
	movl	-12(%ebp), %eax
	movl	8(%ebp), %edx
	movl	%edx, (%esp)
	movl	%eax, %ecx
	call	__ZNSt12_Vector_baseIiSaIiEE11_M_allocateEj
	subl	$4, %esp
	movl	-12(%ebp), %edx
	movl	%eax, (%edx)
	movl	-12(%ebp), %eax
	movl	(%eax), %edx
	movl	-12(%ebp), %eax
	movl	%edx, 4(%eax)
	movl	-12(%ebp), %eax
	movl	(%eax), %eax
	movl	8(%ebp), %edx
	sall	$2, %edx
	addl	%eax, %edx
	movl	-12(%ebp), %eax
	movl	%edx, 8(%eax)
	nop
	leave
	.cfi_restore 5
	.cfi_def_cfa 4, 4
	ret	$4
	.cfi_endproc
LFE2333:
	.section	.text$_ZN9__gnu_cxx17__normal_iteratorIPKiSt6vectorIiSaIiEEEC1ERKS2_,"x"
	.linkonce discard
	.align 2
	.globl	__ZN9__gnu_cxx17__normal_iteratorIPKiSt6vectorIiSaIiEEEC1ERKS2_
	.def	__ZN9__gnu_cxx17__normal_iteratorIPKiSt6vectorIiSaIiEEEC1ERKS2_;	.scl	2;	.type	32;	.endef
__ZN9__gnu_cxx17__normal_iteratorIPKiSt6vectorIiSaIiEEEC1ERKS2_:
LFB2336:
	.cfi_startproc
	pushl	%ebp
	.cfi_def_cfa_offset 8
	.cfi_offset 5, -8
	movl	%esp, %ebp
	.cfi_def_cfa_register 5
	subl	$4, %esp
	movl	%ecx, -4(%ebp)
	movl	8(%ebp), %eax
	movl	(%eax), %edx
	movl	-4(%ebp), %eax
	movl	%edx, (%eax)
	nop
	leave
	.cfi_restore 5
	.cfi_def_cfa 4, 4
	ret	$4
	.cfi_endproc
LFE2336:
	.section	.text$_ZSt18uninitialized_copyIN9__gnu_cxx17__normal_iteratorIPKiSt6vectorIiSaIiEEEEPiET0_T_SA_S9_,"x"
	.linkonce discard
	.globl	__ZSt18uninitialized_copyIN9__gnu_cxx17__normal_iteratorIPKiSt6vectorIiSaIiEEEEPiET0_T_SA_S9_
	.def	__ZSt18uninitialized_copyIN9__gnu_cxx17__normal_iteratorIPKiSt6vectorIiSaIiEEEEPiET0_T_SA_S9_;	.scl	2;	.type	32;	.endef
__ZSt18uninitialized_copyIN9__gnu_cxx17__normal_iteratorIPKiSt6vectorIiSaIiEEEEPiET0_T_SA_S9_:
LFB2337:
	.cfi_startproc
	pushl	%ebp
	.cfi_def_cfa_offset 8
	.cfi_offset 5, -8
	movl	%esp, %ebp
	.cfi_def_cfa_register 5
	subl	$40, %esp
	movb	$1, -9(%ebp)
	movl	16(%ebp), %eax
	movl	%eax, 8(%esp)
	movl	12(%ebp), %eax
	movl	%eax, 4(%esp)
	movl	8(%ebp), %eax
	movl	%eax, (%esp)
	call	__ZNSt20__uninitialized_copyILb1EE13__uninit_copyIN9__gnu_cxx17__normal_iteratorIPKiSt6vectorIiSaIiEEEEPiEET0_T_SC_SB_
	leave
	.cfi_restore 5
	.cfi_def_cfa 4, 4
	ret
	.cfi_endproc
LFE2337:
	.section	.text$_ZN9__gnu_cxx13new_allocatorIiE10deallocateEPij,"x"
	.linkonce discard
	.align 2
	.globl	__ZN9__gnu_cxx13new_allocatorIiE10deallocateEPij
	.def	__ZN9__gnu_cxx13new_allocatorIiE10deallocateEPij;	.scl	2;	.type	32;	.endef
__ZN9__gnu_cxx13new_allocatorIiE10deallocateEPij:
LFB2371:
	.cfi_startproc
	pushl	%ebp
	.cfi_def_cfa_offset 8
	.cfi_offset 5, -8
	movl	%esp, %ebp
	.cfi_def_cfa_register 5
	subl	$40, %esp
	movl	%ecx, -12(%ebp)
	movl	8(%ebp), %eax
	movl	%eax, (%esp)
	call	__ZdlPv
	nop
	leave
	.cfi_restore 5
	.cfi_def_cfa 4, 4
	ret	$8
	.cfi_endproc
LFE2371:
	.section	.text$_ZNSt12_Destroy_auxILb1EE9__destroyIPiEEvT_S3_,"x"
	.linkonce discard
	.globl	__ZNSt12_Destroy_auxILb1EE9__destroyIPiEEvT_S3_
	.def	__ZNSt12_Destroy_auxILb1EE9__destroyIPiEEvT_S3_;	.scl	2;	.type	32;	.endef
__ZNSt12_Destroy_auxILb1EE9__destroyIPiEEvT_S3_:
LFB2372:
	.cfi_startproc
	pushl	%ebp
	.cfi_def_cfa_offset 8
	.cfi_offset 5, -8
	movl	%esp, %ebp
	.cfi_def_cfa_register 5
	nop
	popl	%ebp
	.cfi_restore 5
	.cfi_def_cfa 4, 4
	ret
	.cfi_endproc
LFE2372:
	.section	.text$_ZNKSt6vectorIiSaIiEE8max_sizeEv,"x"
	.linkonce discard
	.align 2
	.globl	__ZNKSt6vectorIiSaIiEE8max_sizeEv
	.def	__ZNKSt6vectorIiSaIiEE8max_sizeEv;	.scl	2;	.type	32;	.endef
__ZNKSt6vectorIiSaIiEE8max_sizeEv:
LFB2373:
	.cfi_startproc
	pushl	%ebp
	.cfi_def_cfa_offset 8
	.cfi_offset 5, -8
	movl	%esp, %ebp
	.cfi_def_cfa_register 5
	subl	$40, %esp
	movl	%ecx, -12(%ebp)
	movl	-12(%ebp), %eax
	movl	%eax, %ecx
	call	__ZNKSt12_Vector_baseIiSaIiEE19_M_get_Tp_allocatorEv
	movl	%eax, (%esp)
	call	__ZNSt6vectorIiSaIiEE11_S_max_sizeERKS0_
	leave
	.cfi_restore 5
	.cfi_def_cfa 4, 4
	ret
	.cfi_endproc
LFE2373:
	.section	.text$_ZSt3maxIjERKT_S2_S2_,"x"
	.linkonce discard
	.globl	__ZSt3maxIjERKT_S2_S2_
	.def	__ZSt3maxIjERKT_S2_S2_;	.scl	2;	.type	32;	.endef
__ZSt3maxIjERKT_S2_S2_:
LFB2374:
	.cfi_startproc
	pushl	%ebp
	.cfi_def_cfa_offset 8
	.cfi_offset 5, -8
	movl	%esp, %ebp
	.cfi_def_cfa_register 5
	movl	8(%ebp), %eax
	movl	(%eax), %edx
	movl	12(%ebp), %eax
	movl	(%eax), %eax
	cmpl	%eax, %edx
	jnb	L133
	movl	12(%ebp), %eax
	jmp	L134
L133:
	movl	8(%ebp), %eax
L134:
	popl	%ebp
	.cfi_restore 5
	.cfi_def_cfa 4, 4
	ret
	.cfi_endproc
LFE2374:
	.section	.text$_ZNSt16allocator_traitsISaIiEE8allocateERS0_j,"x"
	.linkonce discard
	.globl	__ZNSt16allocator_traitsISaIiEE8allocateERS0_j
	.def	__ZNSt16allocator_traitsISaIiEE8allocateERS0_j;	.scl	2;	.type	32;	.endef
__ZNSt16allocator_traitsISaIiEE8allocateERS0_j:
LFB2375:
	.cfi_startproc
	pushl	%ebp
	.cfi_def_cfa_offset 8
	.cfi_offset 5, -8
	movl	%esp, %ebp
	.cfi_def_cfa_register 5
	subl	$24, %esp
	movl	$0, 4(%esp)
	movl	12(%ebp), %eax
	movl	%eax, (%esp)
	movl	8(%ebp), %ecx
	call	__ZN9__gnu_cxx13new_allocatorIiE8allocateEjPKv
	subl	$8, %esp
	leave
	.cfi_restore 5
	.cfi_def_cfa 4, 4
	ret
	.cfi_endproc
LFE2375:
	.section	.text$_ZNSt6vectorIiSaIiEE14_S_do_relocateEPiS2_S2_RS0_St17integral_constantIbLb1EE,"x"
	.linkonce discard
	.globl	__ZNSt6vectorIiSaIiEE14_S_do_relocateEPiS2_S2_RS0_St17integral_constantIbLb1EE
	.def	__ZNSt6vectorIiSaIiEE14_S_do_relocateEPiS2_S2_RS0_St17integral_constantIbLb1EE;	.scl	2;	.type	32;	.endef
__ZNSt6vectorIiSaIiEE14_S_do_relocateEPiS2_S2_RS0_St17integral_constantIbLb1EE:
LFB2376:
	.cfi_startproc
	pushl	%ebp
	.cfi_def_cfa_offset 8
	.cfi_offset 5, -8
	movl	%esp, %ebp
	.cfi_def_cfa_register 5
	subl	$24, %esp
	movl	20(%ebp), %eax
	movl	%eax, 12(%esp)
	movl	16(%ebp), %eax
	movl	%eax, 8(%esp)
	movl	12(%ebp), %eax
	movl	%eax, 4(%esp)
	movl	8(%ebp), %eax
	movl	%eax, (%esp)
	call	__ZSt12__relocate_aIPiS0_SaIiEET0_T_S3_S2_RT1_
	leave
	.cfi_restore 5
	.cfi_def_cfa 4, 4
	ret
	.cfi_endproc
LFE2376:
	.section	.text$_ZSt32__make_move_if_noexcept_iteratorIiSt13move_iteratorIPiEET0_PT_,"x"
	.linkonce discard
	.globl	__ZSt32__make_move_if_noexcept_iteratorIiSt13move_iteratorIPiEET0_PT_
	.def	__ZSt32__make_move_if_noexcept_iteratorIiSt13move_iteratorIPiEET0_PT_;	.scl	2;	.type	32;	.endef
__ZSt32__make_move_if_noexcept_iteratorIiSt13move_iteratorIPiEET0_PT_:
LFB2377:
	.cfi_startproc
	pushl	%ebp
	.cfi_def_cfa_offset 8
	.cfi_offset 5, -8
	movl	%esp, %ebp
	.cfi_def_cfa_register 5
	subl	$40, %esp
	leal	-12(%ebp), %eax
	movl	8(%ebp), %edx
	movl	%edx, (%esp)
	movl	%eax, %ecx
	call	__ZNSt13move_iteratorIPiEC1ES0_
	subl	$4, %esp
	movl	-12(%ebp), %eax
	leave
	.cfi_restore 5
	.cfi_def_cfa 4, 4
	ret
	.cfi_endproc
LFE2377:
	.section	.text$_ZSt22__uninitialized_copy_aISt13move_iteratorIPiES1_iET0_T_S4_S3_RSaIT1_E,"x"
	.linkonce discard
	.globl	__ZSt22__uninitialized_copy_aISt13move_iteratorIPiES1_iET0_T_S4_S3_RSaIT1_E
	.def	__ZSt22__uninitialized_copy_aISt13move_iteratorIPiES1_iET0_T_S4_S3_RSaIT1_E;	.scl	2;	.type	32;	.endef
__ZSt22__uninitialized_copy_aISt13move_iteratorIPiES1_iET0_T_S4_S3_RSaIT1_E:
LFB2378:
	.cfi_startproc
	pushl	%ebp
	.cfi_def_cfa_offset 8
	.cfi_offset 5, -8
	movl	%esp, %ebp
	.cfi_def_cfa_register 5
	subl	$24, %esp
	movl	16(%ebp), %eax
	movl	%eax, 8(%esp)
	movl	12(%ebp), %eax
	movl	%eax, 4(%esp)
	movl	8(%ebp), %eax
	movl	%eax, (%esp)
	call	__ZSt18uninitialized_copyISt13move_iteratorIPiES1_ET0_T_S4_S3_
	leave
	.cfi_restore 5
	.cfi_def_cfa 4, 4
	ret
	.cfi_endproc
LFE2378:
	.section	.text$_ZN9__gnu_cxx13new_allocatorIiE7destroyIiEEvPT_,"x"
	.linkonce discard
	.align 2
	.globl	__ZN9__gnu_cxx13new_allocatorIiE7destroyIiEEvPT_
	.def	__ZN9__gnu_cxx13new_allocatorIiE7destroyIiEEvPT_;	.scl	2;	.type	32;	.endef
__ZN9__gnu_cxx13new_allocatorIiE7destroyIiEEvPT_:
LFB2379:
	.cfi_startproc
	pushl	%ebp
	.cfi_def_cfa_offset 8
	.cfi_offset 5, -8
	movl	%esp, %ebp
	.cfi_def_cfa_register 5
	subl	$4, %esp
	movl	%ecx, -4(%ebp)
	nop
	leave
	.cfi_restore 5
	.cfi_def_cfa 4, 4
	ret	$4
	.cfi_endproc
LFE2379:
	.section	.text$_ZN9__gnu_cxx13new_allocatorIiEC2ERKS1_,"x"
	.linkonce discard
	.align 2
	.globl	__ZN9__gnu_cxx13new_allocatorIiEC2ERKS1_
	.def	__ZN9__gnu_cxx13new_allocatorIiEC2ERKS1_;	.scl	2;	.type	32;	.endef
__ZN9__gnu_cxx13new_allocatorIiEC2ERKS1_:
LFB2381:
	.cfi_startproc
	pushl	%ebp
	.cfi_def_cfa_offset 8
	.cfi_offset 5, -8
	movl	%esp, %ebp
	.cfi_def_cfa_register 5
	subl	$4, %esp
	movl	%ecx, -4(%ebp)
	nop
	leave
	.cfi_restore 5
	.cfi_def_cfa 4, 4
	ret	$4
	.cfi_endproc
LFE2381:
	.section	.text$_ZNSt20__uninitialized_copyILb1EE13__uninit_copyIN9__gnu_cxx17__normal_iteratorIPKiSt6vectorIiSaIiEEEEPiEET0_T_SC_SB_,"x"
	.linkonce discard
	.globl	__ZNSt20__uninitialized_copyILb1EE13__uninit_copyIN9__gnu_cxx17__normal_iteratorIPKiSt6vectorIiSaIiEEEEPiEET0_T_SC_SB_
	.def	__ZNSt20__uninitialized_copyILb1EE13__uninit_copyIN9__gnu_cxx17__normal_iteratorIPKiSt6vectorIiSaIiEEEEPiEET0_T_SC_SB_;	.scl	2;	.type	32;	.endef
__ZNSt20__uninitialized_copyILb1EE13__uninit_copyIN9__gnu_cxx17__normal_iteratorIPKiSt6vectorIiSaIiEEEEPiEET0_T_SC_SB_:
LFB2383:
	.cfi_startproc
	pushl	%ebp
	.cfi_def_cfa_offset 8
	.cfi_offset 5, -8
	movl	%esp, %ebp
	.cfi_def_cfa_register 5
	subl	$24, %esp
	movl	16(%ebp), %eax
	movl	%eax, 8(%esp)
	movl	12(%ebp), %eax
	movl	%eax, 4(%esp)
	movl	8(%ebp), %eax
	movl	%eax, (%esp)
	call	__ZSt4copyIN9__gnu_cxx17__normal_iteratorIPKiSt6vectorIiSaIiEEEEPiET0_T_SA_S9_
	leave
	.cfi_restore 5
	.cfi_def_cfa 4, 4
	ret
	.cfi_endproc
LFE2383:
	.section	.text$_ZNSt6vectorIiSaIiEE11_S_max_sizeERKS0_,"x"
	.linkonce discard
	.globl	__ZNSt6vectorIiSaIiEE11_S_max_sizeERKS0_
	.def	__ZNSt6vectorIiSaIiEE11_S_max_sizeERKS0_;	.scl	2;	.type	32;	.endef
__ZNSt6vectorIiSaIiEE11_S_max_sizeERKS0_:
LFB2412:
	.cfi_startproc
	pushl	%ebp
	.cfi_def_cfa_offset 8
	.cfi_offset 5, -8
	movl	%esp, %ebp
	.cfi_def_cfa_register 5
	subl	$40, %esp
	movl	$536870911, -12(%ebp)
	movl	8(%ebp), %eax
	movl	%eax, (%esp)
	call	__ZNSt16allocator_traitsISaIiEE8max_sizeERKS0_
	movl	%eax, -16(%ebp)
	leal	-16(%ebp), %eax
	movl	%eax, 4(%esp)
	leal	-12(%ebp), %eax
	movl	%eax, (%esp)
	call	__ZSt3minIjERKT_S2_S2_
	movl	(%eax), %eax
	leave
	.cfi_restore 5
	.cfi_def_cfa 4, 4
	ret
	.cfi_endproc
LFE2412:
	.section	.text$_ZN9__gnu_cxx13new_allocatorIiE8allocateEjPKv,"x"
	.linkonce discard
	.align 2
	.globl	__ZN9__gnu_cxx13new_allocatorIiE8allocateEjPKv
	.def	__ZN9__gnu_cxx13new_allocatorIiE8allocateEjPKv;	.scl	2;	.type	32;	.endef
__ZN9__gnu_cxx13new_allocatorIiE8allocateEjPKv:
LFB2413:
	.cfi_startproc
	pushl	%ebp
	.cfi_def_cfa_offset 8
	.cfi_offset 5, -8
	movl	%esp, %ebp
	.cfi_def_cfa_register 5
	subl	$40, %esp
	movl	%ecx, -12(%ebp)
	movl	-12(%ebp), %eax
	movl	%eax, %ecx
	call	__ZNK9__gnu_cxx13new_allocatorIiE8max_sizeEv
	cmpl	%eax, 8(%ebp)
	seta	%al
	testb	%al, %al
	je	L150
	call	__ZSt17__throw_bad_allocv
L150:
	movl	8(%ebp), %eax
	sall	$2, %eax
	movl	%eax, (%esp)
	call	__Znwj
	leave
	.cfi_restore 5
	.cfi_def_cfa 4, 4
	ret	$8
	.cfi_endproc
LFE2413:
	.section	.text$_ZSt12__relocate_aIPiS0_SaIiEET0_T_S3_S2_RT1_,"x"
	.linkonce discard
	.globl	__ZSt12__relocate_aIPiS0_SaIiEET0_T_S3_S2_RT1_
	.def	__ZSt12__relocate_aIPiS0_SaIiEET0_T_S3_S2_RT1_;	.scl	2;	.type	32;	.endef
__ZSt12__relocate_aIPiS0_SaIiEET0_T_S3_S2_RT1_:
LFB2414:
	.cfi_startproc
	pushl	%ebp
	.cfi_def_cfa_offset 8
	.cfi_offset 5, -8
	movl	%esp, %ebp
	.cfi_def_cfa_register 5
	pushl	%esi
	pushl	%ebx
	subl	$16, %esp
	.cfi_offset 6, -12
	.cfi_offset 3, -16
	movl	16(%ebp), %eax
	movl	%eax, (%esp)
	call	__ZSt12__niter_baseIPiET_S1_
	movl	%eax, %esi
	movl	12(%ebp), %eax
	movl	%eax, (%esp)
	call	__ZSt12__niter_baseIPiET_S1_
	movl	%eax, %ebx
	movl	8(%ebp), %eax
	movl	%eax, (%esp)
	call	__ZSt12__niter_baseIPiET_S1_
	movl	20(%ebp), %edx
	movl	%edx, 12(%esp)
	movl	%esi, 8(%esp)
	movl	%ebx, 4(%esp)
	movl	%eax, (%esp)
	call	__ZSt14__relocate_a_1IiiENSt9enable_ifIXsrSt24__is_bitwise_relocatableIT_vE5valueEPS2_E4typeES4_S4_S4_RSaIT0_E
	addl	$16, %esp
	popl	%ebx
	.cfi_restore 3
	popl	%esi
	.cfi_restore 6
	popl	%ebp
	.cfi_restore 5
	.cfi_def_cfa 4, 4
	ret
	.cfi_endproc
LFE2414:
	.section	.text$_ZNSt13move_iteratorIPiEC1ES0_,"x"
	.linkonce discard
	.align 2
	.globl	__ZNSt13move_iteratorIPiEC1ES0_
	.def	__ZNSt13move_iteratorIPiEC1ES0_;	.scl	2;	.type	32;	.endef
__ZNSt13move_iteratorIPiEC1ES0_:
LFB2417:
	.cfi_startproc
	pushl	%ebp
	.cfi_def_cfa_offset 8
	.cfi_offset 5, -8
	movl	%esp, %ebp
	.cfi_def_cfa_register 5
	subl	$4, %esp
	movl	%ecx, -4(%ebp)
	movl	-4(%ebp), %eax
	movl	8(%ebp), %edx
	movl	%edx, (%eax)
	nop
	leave
	.cfi_restore 5
	.cfi_def_cfa 4, 4
	ret	$4
	.cfi_endproc
LFE2417:
	.section	.text$_ZSt18uninitialized_copyISt13move_iteratorIPiES1_ET0_T_S4_S3_,"x"
	.linkonce discard
	.globl	__ZSt18uninitialized_copyISt13move_iteratorIPiES1_ET0_T_S4_S3_
	.def	__ZSt18uninitialized_copyISt13move_iteratorIPiES1_ET0_T_S4_S3_;	.scl	2;	.type	32;	.endef
__ZSt18uninitialized_copyISt13move_iteratorIPiES1_ET0_T_S4_S3_:
LFB2418:
	.cfi_startproc
	pushl	%ebp
	.cfi_def_cfa_offset 8
	.cfi_offset 5, -8
	movl	%esp, %ebp
	.cfi_def_cfa_register 5
	subl	$40, %esp
	movb	$1, -9(%ebp)
	movl	16(%ebp), %eax
	movl	%eax, 8(%esp)
	movl	12(%ebp), %eax
	movl	%eax, 4(%esp)
	movl	8(%ebp), %eax
	movl	%eax, (%esp)
	call	__ZNSt20__uninitialized_copyILb1EE13__uninit_copyISt13move_iteratorIPiES3_EET0_T_S6_S5_
	leave
	.cfi_restore 5
	.cfi_def_cfa 4, 4
	ret
	.cfi_endproc
LFE2418:
	.section	.text$_ZSt4copyIN9__gnu_cxx17__normal_iteratorIPKiSt6vectorIiSaIiEEEEPiET0_T_SA_S9_,"x"
	.linkonce discard
	.globl	__ZSt4copyIN9__gnu_cxx17__normal_iteratorIPKiSt6vectorIiSaIiEEEEPiET0_T_SA_S9_
	.def	__ZSt4copyIN9__gnu_cxx17__normal_iteratorIPKiSt6vectorIiSaIiEEEEPiET0_T_SA_S9_;	.scl	2;	.type	32;	.endef
__ZSt4copyIN9__gnu_cxx17__normal_iteratorIPKiSt6vectorIiSaIiEEEEPiET0_T_SA_S9_:
LFB2419:
	.cfi_startproc
	pushl	%ebp
	.cfi_def_cfa_offset 8
	.cfi_offset 5, -8
	movl	%esp, %ebp
	.cfi_def_cfa_register 5
	pushl	%ebx
	subl	$20, %esp
	.cfi_offset 3, -12
	movl	12(%ebp), %eax
	movl	%eax, (%esp)
	call	__ZSt12__miter_baseIN9__gnu_cxx17__normal_iteratorIPKiSt6vectorIiSaIiEEEEET_S8_
	movl	%eax, %ebx
	movl	8(%ebp), %eax
	movl	%eax, (%esp)
	call	__ZSt12__miter_baseIN9__gnu_cxx17__normal_iteratorIPKiSt6vectorIiSaIiEEEEET_S8_
	movl	16(%ebp), %edx
	movl	%edx, 8(%esp)
	movl	%ebx, 4(%esp)
	movl	%eax, (%esp)
	call	__ZSt14__copy_move_a2ILb0EN9__gnu_cxx17__normal_iteratorIPKiSt6vectorIiSaIiEEEEPiET1_T0_SA_S9_
	addl	$20, %esp
	popl	%ebx
	.cfi_restore 3
	popl	%ebp
	.cfi_restore 5
	.cfi_def_cfa 4, 4
	ret
	.cfi_endproc
LFE2419:
	.section	.text$_ZNSt16allocator_traitsISaIiEE8max_sizeERKS0_,"x"
	.linkonce discard
	.globl	__ZNSt16allocator_traitsISaIiEE8max_sizeERKS0_
	.def	__ZNSt16allocator_traitsISaIiEE8max_sizeERKS0_;	.scl	2;	.type	32;	.endef
__ZNSt16allocator_traitsISaIiEE8max_sizeERKS0_:
LFB2444:
	.cfi_startproc
	pushl	%ebp
	.cfi_def_cfa_offset 8
	.cfi_offset 5, -8
	movl	%esp, %ebp
	.cfi_def_cfa_register 5
	subl	$8, %esp
	movl	8(%ebp), %ecx
	call	__ZNK9__gnu_cxx13new_allocatorIiE8max_sizeEv
	leave
	.cfi_restore 5
	.cfi_def_cfa 4, 4
	ret
	.cfi_endproc
LFE2444:
	.section	.text$_ZSt3minIjERKT_S2_S2_,"x"
	.linkonce discard
	.globl	__ZSt3minIjERKT_S2_S2_
	.def	__ZSt3minIjERKT_S2_S2_;	.scl	2;	.type	32;	.endef
__ZSt3minIjERKT_S2_S2_:
LFB2445:
	.cfi_startproc
	pushl	%ebp
	.cfi_def_cfa_offset 8
	.cfi_offset 5, -8
	movl	%esp, %ebp
	.cfi_def_cfa_register 5
	movl	12(%ebp), %eax
	movl	(%eax), %edx
	movl	8(%ebp), %eax
	movl	(%eax), %eax
	cmpl	%eax, %edx
	jnb	L162
	movl	12(%ebp), %eax
	jmp	L163
L162:
	movl	8(%ebp), %eax
L163:
	popl	%ebp
	.cfi_restore 5
	.cfi_def_cfa 4, 4
	ret
	.cfi_endproc
LFE2445:
	.section	.text$_ZNK9__gnu_cxx13new_allocatorIiE8max_sizeEv,"x"
	.linkonce discard
	.align 2
	.globl	__ZNK9__gnu_cxx13new_allocatorIiE8max_sizeEv
	.def	__ZNK9__gnu_cxx13new_allocatorIiE8max_sizeEv;	.scl	2;	.type	32;	.endef
__ZNK9__gnu_cxx13new_allocatorIiE8max_sizeEv:
LFB2446:
	.cfi_startproc
	pushl	%ebp
	.cfi_def_cfa_offset 8
	.cfi_offset 5, -8
	movl	%esp, %ebp
	.cfi_def_cfa_register 5
	subl	$4, %esp
	movl	%ecx, -4(%ebp)
	movl	$536870911, %eax
	leave
	.cfi_restore 5
	.cfi_def_cfa 4, 4
	ret
	.cfi_endproc
LFE2446:
	.section	.text$_ZSt12__niter_baseIPiET_S1_,"x"
	.linkonce discard
	.globl	__ZSt12__niter_baseIPiET_S1_
	.def	__ZSt12__niter_baseIPiET_S1_;	.scl	2;	.type	32;	.endef
__ZSt12__niter_baseIPiET_S1_:
LFB2447:
	.cfi_startproc
	pushl	%ebp
	.cfi_def_cfa_offset 8
	.cfi_offset 5, -8
	movl	%esp, %ebp
	.cfi_def_cfa_register 5
	movl	8(%ebp), %eax
	popl	%ebp
	.cfi_restore 5
	.cfi_def_cfa 4, 4
	ret
	.cfi_endproc
LFE2447:
	.section	.text$_ZSt14__relocate_a_1IiiENSt9enable_ifIXsrSt24__is_bitwise_relocatableIT_vE5valueEPS2_E4typeES4_S4_S4_RSaIT0_E,"x"
	.linkonce discard
	.globl	__ZSt14__relocate_a_1IiiENSt9enable_ifIXsrSt24__is_bitwise_relocatableIT_vE5valueEPS2_E4typeES4_S4_S4_RSaIT0_E
	.def	__ZSt14__relocate_a_1IiiENSt9enable_ifIXsrSt24__is_bitwise_relocatableIT_vE5valueEPS2_E4typeES4_S4_S4_RSaIT0_E;	.scl	2;	.type	32;	.endef
__ZSt14__relocate_a_1IiiENSt9enable_ifIXsrSt24__is_bitwise_relocatableIT_vE5valueEPS2_E4typeES4_S4_S4_RSaIT0_E:
LFB2448:
	.cfi_startproc
	pushl	%ebp
	.cfi_def_cfa_offset 8
	.cfi_offset 5, -8
	movl	%esp, %ebp
	.cfi_def_cfa_register 5
	subl	$40, %esp
	movl	12(%ebp), %eax
	subl	8(%ebp), %eax
	sarl	$2, %eax
	movl	%eax, -12(%ebp)
	cmpl	$0, -12(%ebp)
	jle	L169
	movl	-12(%ebp), %eax
	sall	$2, %eax
	movl	%eax, 8(%esp)
	movl	8(%ebp), %eax
	movl	%eax, 4(%esp)
	movl	16(%ebp), %eax
	movl	%eax, (%esp)
	call	_memmove
L169:
	movl	-12(%ebp), %eax
	leal	0(,%eax,4), %edx
	movl	16(%ebp), %eax
	addl	%edx, %eax
	leave
	.cfi_restore 5
	.cfi_def_cfa 4, 4
	ret
	.cfi_endproc
LFE2448:
	.section	.text$_ZNSt20__uninitialized_copyILb1EE13__uninit_copyISt13move_iteratorIPiES3_EET0_T_S6_S5_,"x"
	.linkonce discard
	.globl	__ZNSt20__uninitialized_copyILb1EE13__uninit_copyISt13move_iteratorIPiES3_EET0_T_S6_S5_
	.def	__ZNSt20__uninitialized_copyILb1EE13__uninit_copyISt13move_iteratorIPiES3_EET0_T_S6_S5_;	.scl	2;	.type	32;	.endef
__ZNSt20__uninitialized_copyILb1EE13__uninit_copyISt13move_iteratorIPiES3_EET0_T_S6_S5_:
LFB2449:
	.cfi_startproc
	pushl	%ebp
	.cfi_def_cfa_offset 8
	.cfi_offset 5, -8
	movl	%esp, %ebp
	.cfi_def_cfa_register 5
	subl	$24, %esp
	movl	16(%ebp), %eax
	movl	%eax, 8(%esp)
	movl	12(%ebp), %eax
	movl	%eax, 4(%esp)
	movl	8(%ebp), %eax
	movl	%eax, (%esp)
	call	__ZSt4copyISt13move_iteratorIPiES1_ET0_T_S4_S3_
	leave
	.cfi_restore 5
	.cfi_def_cfa 4, 4
	ret
	.cfi_endproc
LFE2449:
	.section	.text$_ZSt12__miter_baseIN9__gnu_cxx17__normal_iteratorIPKiSt6vectorIiSaIiEEEEET_S8_,"x"
	.linkonce discard
	.globl	__ZSt12__miter_baseIN9__gnu_cxx17__normal_iteratorIPKiSt6vectorIiSaIiEEEEET_S8_
	.def	__ZSt12__miter_baseIN9__gnu_cxx17__normal_iteratorIPKiSt6vectorIiSaIiEEEEET_S8_;	.scl	2;	.type	32;	.endef
__ZSt12__miter_baseIN9__gnu_cxx17__normal_iteratorIPKiSt6vectorIiSaIiEEEEET_S8_:
LFB2450:
	.cfi_startproc
	pushl	%ebp
	.cfi_def_cfa_offset 8
	.cfi_offset 5, -8
	movl	%esp, %ebp
	.cfi_def_cfa_register 5
	movl	8(%ebp), %eax
	popl	%ebp
	.cfi_restore 5
	.cfi_def_cfa 4, 4
	ret
	.cfi_endproc
LFE2450:
	.section	.text$_ZSt14__copy_move_a2ILb0EN9__gnu_cxx17__normal_iteratorIPKiSt6vectorIiSaIiEEEEPiET1_T0_SA_S9_,"x"
	.linkonce discard
	.globl	__ZSt14__copy_move_a2ILb0EN9__gnu_cxx17__normal_iteratorIPKiSt6vectorIiSaIiEEEEPiET1_T0_SA_S9_
	.def	__ZSt14__copy_move_a2ILb0EN9__gnu_cxx17__normal_iteratorIPKiSt6vectorIiSaIiEEEEPiET1_T0_SA_S9_;	.scl	2;	.type	32;	.endef
__ZSt14__copy_move_a2ILb0EN9__gnu_cxx17__normal_iteratorIPKiSt6vectorIiSaIiEEEEPiET1_T0_SA_S9_:
LFB2451:
	.cfi_startproc
	pushl	%ebp
	.cfi_def_cfa_offset 8
	.cfi_offset 5, -8
	movl	%esp, %ebp
	.cfi_def_cfa_register 5
	pushl	%esi
	pushl	%ebx
	subl	$16, %esp
	.cfi_offset 6, -12
	.cfi_offset 3, -16
	movl	16(%ebp), %eax
	movl	%eax, (%esp)
	call	__ZSt12__niter_baseIPiET_S1_
	movl	%eax, %esi
	movl	12(%ebp), %eax
	movl	%eax, (%esp)
	call	__ZSt12__niter_baseIPKiSt6vectorIiSaIiEEET_N9__gnu_cxx17__normal_iteratorIS5_T0_EE
	movl	%eax, %ebx
	movl	8(%ebp), %eax
	movl	%eax, (%esp)
	call	__ZSt12__niter_baseIPKiSt6vectorIiSaIiEEET_N9__gnu_cxx17__normal_iteratorIS5_T0_EE
	movl	%esi, 8(%esp)
	movl	%ebx, 4(%esp)
	movl	%eax, (%esp)
	call	__ZSt13__copy_move_aILb0EPKiPiET1_T0_S4_S3_
	movl	%eax, 4(%esp)
	leal	16(%ebp), %eax
	movl	%eax, (%esp)
	call	__ZSt12__niter_wrapIPiET_RKS1_S1_
	addl	$16, %esp
	popl	%ebx
	.cfi_restore 3
	popl	%esi
	.cfi_restore 6
	popl	%ebp
	.cfi_restore 5
	.cfi_def_cfa 4, 4
	ret
	.cfi_endproc
LFE2451:
	.section	.text$_ZSt4copyISt13move_iteratorIPiES1_ET0_T_S4_S3_,"x"
	.linkonce discard
	.globl	__ZSt4copyISt13move_iteratorIPiES1_ET0_T_S4_S3_
	.def	__ZSt4copyISt13move_iteratorIPiES1_ET0_T_S4_S3_;	.scl	2;	.type	32;	.endef
__ZSt4copyISt13move_iteratorIPiES1_ET0_T_S4_S3_:
LFB2460:
	.cfi_startproc
	pushl	%ebp
	.cfi_def_cfa_offset 8
	.cfi_offset 5, -8
	movl	%esp, %ebp
	.cfi_def_cfa_register 5
	pushl	%ebx
	subl	$20, %esp
	.cfi_offset 3, -12
	movl	12(%ebp), %eax
	movl	%eax, (%esp)
	call	__ZSt12__miter_baseIPiEDTcl12__miter_basecldtfp_4baseEEESt13move_iteratorIT_E
	movl	%eax, %ebx
	movl	8(%ebp), %eax
	movl	%eax, (%esp)
	call	__ZSt12__miter_baseIPiEDTcl12__miter_basecldtfp_4baseEEESt13move_iteratorIT_E
	movl	16(%ebp), %edx
	movl	%edx, 8(%esp)
	movl	%ebx, 4(%esp)
	movl	%eax, (%esp)
	call	__ZSt14__copy_move_a2ILb1EPiS0_ET1_T0_S2_S1_
	addl	$20, %esp
	popl	%ebx
	.cfi_restore 3
	popl	%ebp
	.cfi_restore 5
	.cfi_def_cfa 4, 4
	ret
	.cfi_endproc
LFE2460:
	.section	.text$_ZSt12__niter_baseIPKiSt6vectorIiSaIiEEET_N9__gnu_cxx17__normal_iteratorIS5_T0_EE,"x"
	.linkonce discard
	.globl	__ZSt12__niter_baseIPKiSt6vectorIiSaIiEEET_N9__gnu_cxx17__normal_iteratorIS5_T0_EE
	.def	__ZSt12__niter_baseIPKiSt6vectorIiSaIiEEET_N9__gnu_cxx17__normal_iteratorIS5_T0_EE;	.scl	2;	.type	32;	.endef
__ZSt12__niter_baseIPKiSt6vectorIiSaIiEEET_N9__gnu_cxx17__normal_iteratorIS5_T0_EE:
LFB2461:
	.cfi_startproc
	pushl	%ebp
	.cfi_def_cfa_offset 8
	.cfi_offset 5, -8
	movl	%esp, %ebp
	.cfi_def_cfa_register 5
	subl	$8, %esp
	leal	8(%ebp), %ecx
	call	__ZNK9__gnu_cxx17__normal_iteratorIPKiSt6vectorIiSaIiEEE4baseEv
	movl	(%eax), %eax
	leave
	.cfi_restore 5
	.cfi_def_cfa 4, 4
	ret
	.cfi_endproc
LFE2461:
	.section	.text$_ZSt13__copy_move_aILb0EPKiPiET1_T0_S4_S3_,"x"
	.linkonce discard
	.globl	__ZSt13__copy_move_aILb0EPKiPiET1_T0_S4_S3_
	.def	__ZSt13__copy_move_aILb0EPKiPiET1_T0_S4_S3_;	.scl	2;	.type	32;	.endef
__ZSt13__copy_move_aILb0EPKiPiET1_T0_S4_S3_:
LFB2462:
	.cfi_startproc
	pushl	%ebp
	.cfi_def_cfa_offset 8
	.cfi_offset 5, -8
	movl	%esp, %ebp
	.cfi_def_cfa_register 5
	subl	$40, %esp
	movb	$1, -9(%ebp)
	movl	16(%ebp), %eax
	movl	%eax, 8(%esp)
	movl	12(%ebp), %eax
	movl	%eax, 4(%esp)
	movl	8(%ebp), %eax
	movl	%eax, (%esp)
	call	__ZNSt11__copy_moveILb0ELb1ESt26random_access_iterator_tagE8__copy_mIiEEPT_PKS3_S6_S4_
	leave
	.cfi_restore 5
	.cfi_def_cfa 4, 4
	ret
	.cfi_endproc
LFE2462:
	.section	.text$_ZSt12__niter_wrapIPiET_RKS1_S1_,"x"
	.linkonce discard
	.globl	__ZSt12__niter_wrapIPiET_RKS1_S1_
	.def	__ZSt12__niter_wrapIPiET_RKS1_S1_;	.scl	2;	.type	32;	.endef
__ZSt12__niter_wrapIPiET_RKS1_S1_:
LFB2463:
	.cfi_startproc
	pushl	%ebp
	.cfi_def_cfa_offset 8
	.cfi_offset 5, -8
	movl	%esp, %ebp
	.cfi_def_cfa_register 5
	movl	12(%ebp), %eax
	popl	%ebp
	.cfi_restore 5
	.cfi_def_cfa 4, 4
	ret
	.cfi_endproc
LFE2463:
	.section	.text$_ZSt12__miter_baseIPiEDTcl12__miter_basecldtfp_4baseEEESt13move_iteratorIT_E,"x"
	.linkonce discard
	.globl	__ZSt12__miter_baseIPiEDTcl12__miter_basecldtfp_4baseEEESt13move_iteratorIT_E
	.def	__ZSt12__miter_baseIPiEDTcl12__miter_basecldtfp_4baseEEESt13move_iteratorIT_E;	.scl	2;	.type	32;	.endef
__ZSt12__miter_baseIPiEDTcl12__miter_basecldtfp_4baseEEESt13move_iteratorIT_E:
LFB2466:
	.cfi_startproc
	pushl	%ebp
	.cfi_def_cfa_offset 8
	.cfi_offset 5, -8
	movl	%esp, %ebp
	.cfi_def_cfa_register 5
	subl	$24, %esp
	leal	8(%ebp), %ecx
	call	__ZNKSt13move_iteratorIPiE4baseEv
	movl	%eax, (%esp)
	call	__ZSt12__miter_baseIPiET_S1_
	leave
	.cfi_restore 5
	.cfi_def_cfa 4, 4
	ret
	.cfi_endproc
LFE2466:
	.section	.text$_ZSt14__copy_move_a2ILb1EPiS0_ET1_T0_S2_S1_,"x"
	.linkonce discard
	.globl	__ZSt14__copy_move_a2ILb1EPiS0_ET1_T0_S2_S1_
	.def	__ZSt14__copy_move_a2ILb1EPiS0_ET1_T0_S2_S1_;	.scl	2;	.type	32;	.endef
__ZSt14__copy_move_a2ILb1EPiS0_ET1_T0_S2_S1_:
LFB2467:
	.cfi_startproc
	pushl	%ebp
	.cfi_def_cfa_offset 8
	.cfi_offset 5, -8
	movl	%esp, %ebp
	.cfi_def_cfa_register 5
	pushl	%esi
	pushl	%ebx
	subl	$16, %esp
	.cfi_offset 6, -12
	.cfi_offset 3, -16
	movl	16(%ebp), %eax
	movl	%eax, (%esp)
	call	__ZSt12__niter_baseIPiET_S1_
	movl	%eax, %esi
	movl	12(%ebp), %eax
	movl	%eax, (%esp)
	call	__ZSt12__niter_baseIPiET_S1_
	movl	%eax, %ebx
	movl	8(%ebp), %eax
	movl	%eax, (%esp)
	call	__ZSt12__niter_baseIPiET_S1_
	movl	%esi, 8(%esp)
	movl	%ebx, 4(%esp)
	movl	%eax, (%esp)
	call	__ZSt13__copy_move_aILb1EPiS0_ET1_T0_S2_S1_
	movl	%eax, 4(%esp)
	leal	16(%ebp), %eax
	movl	%eax, (%esp)
	call	__ZSt12__niter_wrapIPiET_RKS1_S1_
	addl	$16, %esp
	popl	%ebx
	.cfi_restore 3
	popl	%esi
	.cfi_restore 6
	popl	%ebp
	.cfi_restore 5
	.cfi_def_cfa 4, 4
	ret
	.cfi_endproc
LFE2467:
	.section	.text$_ZNK9__gnu_cxx17__normal_iteratorIPKiSt6vectorIiSaIiEEE4baseEv,"x"
	.linkonce discard
	.align 2
	.globl	__ZNK9__gnu_cxx17__normal_iteratorIPKiSt6vectorIiSaIiEEE4baseEv
	.def	__ZNK9__gnu_cxx17__normal_iteratorIPKiSt6vectorIiSaIiEEE4baseEv;	.scl	2;	.type	32;	.endef
__ZNK9__gnu_cxx17__normal_iteratorIPKiSt6vectorIiSaIiEEE4baseEv:
LFB2468:
	.cfi_startproc
	pushl	%ebp
	.cfi_def_cfa_offset 8
	.cfi_offset 5, -8
	movl	%esp, %ebp
	.cfi_def_cfa_register 5
	subl	$4, %esp
	movl	%ecx, -4(%ebp)
	movl	-4(%ebp), %eax
	leave
	.cfi_restore 5
	.cfi_def_cfa 4, 4
	ret
	.cfi_endproc
LFE2468:
	.section	.text$_ZNSt11__copy_moveILb0ELb1ESt26random_access_iterator_tagE8__copy_mIiEEPT_PKS3_S6_S4_,"x"
	.linkonce discard
	.globl	__ZNSt11__copy_moveILb0ELb1ESt26random_access_iterator_tagE8__copy_mIiEEPT_PKS3_S6_S4_
	.def	__ZNSt11__copy_moveILb0ELb1ESt26random_access_iterator_tagE8__copy_mIiEEPT_PKS3_S6_S4_;	.scl	2;	.type	32;	.endef
__ZNSt11__copy_moveILb0ELb1ESt26random_access_iterator_tagE8__copy_mIiEEPT_PKS3_S6_S4_:
LFB2469:
	.cfi_startproc
	pushl	%ebp
	.cfi_def_cfa_offset 8
	.cfi_offset 5, -8
	movl	%esp, %ebp
	.cfi_def_cfa_register 5
	subl	$40, %esp
	movl	12(%ebp), %eax
	subl	8(%ebp), %eax
	sarl	$2, %eax
	movl	%eax, -12(%ebp)
	cmpl	$0, -12(%ebp)
	je	L192
	movl	-12(%ebp), %eax
	sall	$2, %eax
	movl	%eax, 8(%esp)
	movl	8(%ebp), %eax
	movl	%eax, 4(%esp)
	movl	16(%ebp), %eax
	movl	%eax, (%esp)
	call	_memmove
L192:
	movl	-12(%ebp), %eax
	leal	0(,%eax,4), %edx
	movl	16(%ebp), %eax
	addl	%edx, %eax
	leave
	.cfi_restore 5
	.cfi_def_cfa 4, 4
	ret
	.cfi_endproc
LFE2469:
	.section	.text$_ZNKSt13move_iteratorIPiE4baseEv,"x"
	.linkonce discard
	.align 2
	.globl	__ZNKSt13move_iteratorIPiE4baseEv
	.def	__ZNKSt13move_iteratorIPiE4baseEv;	.scl	2;	.type	32;	.endef
__ZNKSt13move_iteratorIPiE4baseEv:
LFB2470:
	.cfi_startproc
	pushl	%ebp
	.cfi_def_cfa_offset 8
	.cfi_offset 5, -8
	movl	%esp, %ebp
	.cfi_def_cfa_register 5
	subl	$4, %esp
	movl	%ecx, -4(%ebp)
	movl	-4(%ebp), %eax
	movl	(%eax), %eax
	leave
	.cfi_restore 5
	.cfi_def_cfa 4, 4
	ret
	.cfi_endproc
LFE2470:
	.section	.text$_ZSt12__miter_baseIPiET_S1_,"x"
	.linkonce discard
	.globl	__ZSt12__miter_baseIPiET_S1_
	.def	__ZSt12__miter_baseIPiET_S1_;	.scl	2;	.type	32;	.endef
__ZSt12__miter_baseIPiET_S1_:
LFB2471:
	.cfi_startproc
	pushl	%ebp
	.cfi_def_cfa_offset 8
	.cfi_offset 5, -8
	movl	%esp, %ebp
	.cfi_def_cfa_register 5
	movl	8(%ebp), %eax
	popl	%ebp
	.cfi_restore 5
	.cfi_def_cfa 4, 4
	ret
	.cfi_endproc
LFE2471:
	.section	.text$_ZSt13__copy_move_aILb1EPiS0_ET1_T0_S2_S1_,"x"
	.linkonce discard
	.globl	__ZSt13__copy_move_aILb1EPiS0_ET1_T0_S2_S1_
	.def	__ZSt13__copy_move_aILb1EPiS0_ET1_T0_S2_S1_;	.scl	2;	.type	32;	.endef
__ZSt13__copy_move_aILb1EPiS0_ET1_T0_S2_S1_:
LFB2472:
	.cfi_startproc
	pushl	%ebp
	.cfi_def_cfa_offset 8
	.cfi_offset 5, -8
	movl	%esp, %ebp
	.cfi_def_cfa_register 5
	subl	$40, %esp
	movb	$1, -9(%ebp)
	movl	16(%ebp), %eax
	movl	%eax, 8(%esp)
	movl	12(%ebp), %eax
	movl	%eax, 4(%esp)
	movl	8(%ebp), %eax
	movl	%eax, (%esp)
	call	__ZNSt11__copy_moveILb1ELb1ESt26random_access_iterator_tagE8__copy_mIiEEPT_PKS3_S6_S4_
	leave
	.cfi_restore 5
	.cfi_def_cfa 4, 4
	ret
	.cfi_endproc
LFE2472:
	.section	.text$_ZNSt11__copy_moveILb1ELb1ESt26random_access_iterator_tagE8__copy_mIiEEPT_PKS3_S6_S4_,"x"
	.linkonce discard
	.globl	__ZNSt11__copy_moveILb1ELb1ESt26random_access_iterator_tagE8__copy_mIiEEPT_PKS3_S6_S4_
	.def	__ZNSt11__copy_moveILb1ELb1ESt26random_access_iterator_tagE8__copy_mIiEEPT_PKS3_S6_S4_;	.scl	2;	.type	32;	.endef
__ZNSt11__copy_moveILb1ELb1ESt26random_access_iterator_tagE8__copy_mIiEEPT_PKS3_S6_S4_:
LFB2473:
	.cfi_startproc
	pushl	%ebp
	.cfi_def_cfa_offset 8
	.cfi_offset 5, -8
	movl	%esp, %ebp
	.cfi_def_cfa_register 5
	subl	$40, %esp
	movl	12(%ebp), %eax
	subl	8(%ebp), %eax
	sarl	$2, %eax
	movl	%eax, -12(%ebp)
	cmpl	$0, -12(%ebp)
	je	L201
	movl	-12(%ebp), %eax
	sall	$2, %eax
	movl	%eax, 8(%esp)
	movl	8(%ebp), %eax
	movl	%eax, 4(%esp)
	movl	16(%ebp), %eax
	movl	%eax, (%esp)
	call	_memmove
L201:
	movl	-12(%ebp), %eax
	leal	0(,%eax,4), %edx
	movl	16(%ebp), %eax
	addl	%edx, %eax
	leave
	.cfi_restore 5
	.cfi_def_cfa 4, 4
	ret
	.cfi_endproc
LFE2473:
	.text
	.def	___tcf_0;	.scl	3;	.type	32;	.endef
___tcf_0:
LFB2475:
	.cfi_startproc
	pushl	%ebp
	.cfi_def_cfa_offset 8
	.cfi_offset 5, -8
	movl	%esp, %ebp
	.cfi_def_cfa_register 5
	subl	$8, %esp
	movl	$__ZStL8__ioinit, %ecx
	call	__ZNSt8ios_base4InitD1Ev
	leave
	.cfi_restore 5
	.cfi_def_cfa 4, 4
	ret
	.cfi_endproc
LFE2475:
	.def	__Z41__static_initialization_and_destruction_0ii;	.scl	3;	.type	32;	.endef
__Z41__static_initialization_and_destruction_0ii:
LFB2474:
	.cfi_startproc
	pushl	%ebp
	.cfi_def_cfa_offset 8
	.cfi_offset 5, -8
	movl	%esp, %ebp
	.cfi_def_cfa_register 5
	subl	$24, %esp
	cmpl	$1, 8(%ebp)
	jne	L206
	cmpl	$65535, 12(%ebp)
	jne	L206
	movl	$__ZStL8__ioinit, %ecx
	call	__ZNSt8ios_base4InitC1Ev
	movl	$___tcf_0, (%esp)
	call	_atexit
L206:
	nop
	leave
	.cfi_restore 5
	.cfi_def_cfa 4, 4
	ret
	.cfi_endproc
LFE2474:
	.def	__GLOBAL__sub_I__Z9PartitionRSt6vectorIiSaIiEEii;	.scl	3;	.type	32;	.endef
__GLOBAL__sub_I__Z9PartitionRSt6vectorIiSaIiEEii:
LFB2476:
	.cfi_startproc
	pushl	%ebp
	.cfi_def_cfa_offset 8
	.cfi_offset 5, -8
	movl	%esp, %ebp
	.cfi_def_cfa_register 5
	subl	$24, %esp
	movl	$65535, 4(%esp)
	movl	$1, (%esp)
	call	__Z41__static_initialization_and_destruction_0ii
	leave
	.cfi_restore 5
	.cfi_def_cfa 4, 4
	ret
	.cfi_endproc
LFE2476:
	.section	.ctors,"w"
	.align 4
	.long	__GLOBAL__sub_I__Z9PartitionRSt6vectorIiSaIiEEii
	.ident	"GCC: (MinGW.org GCC Build-2) 9.2.0"
	.def	__ZNSolsEi;	.scl	2;	.type	32;	.endef
	.def	__ZStlsISt11char_traitsIcEERSt13basic_ostreamIcT_ES5_PKc;	.scl	2;	.type	32;	.endef
	.def	__ZNSirsERi;	.scl	2;	.type	32;	.endef
	.def	__ZSt4endlIcSt11char_traitsIcEERSt13basic_ostreamIT_T0_ES6_;	.scl	2;	.type	32;	.endef
	.def	__ZNSolsEPFRSoS_E;	.scl	2;	.type	32;	.endef
	.def	__Unwind_Resume;	.scl	2;	.type	32;	.endef
	.def	___cxa_begin_catch;	.scl	2;	.type	32;	.endef
	.def	___cxa_rethrow;	.scl	2;	.type	32;	.endef
	.def	___cxa_end_catch;	.scl	2;	.type	32;	.endef
	.def	__ZSt20__throw_length_errorPKc;	.scl	2;	.type	32;	.endef
	.def	__ZdlPv;	.scl	2;	.type	32;	.endef
	.def	__ZSt17__throw_bad_allocv;	.scl	2;	.type	32;	.endef
	.def	__Znwj;	.scl	2;	.type	32;	.endef
	.def	_memmove;	.scl	2;	.type	32;	.endef
	.def	__ZNSt8ios_base4InitD1Ev;	.scl	2;	.type	32;	.endef
	.def	__ZNSt8ios_base4InitC1Ev;	.scl	2;	.type	32;	.endef
	.def	_atexit;	.scl	2;	.type	32;	.endef
